
pidetchingbath.elf:     file format elf32-avr

Sections:
Idx Name          Size      VMA       LMA       File off  Algn
  0 .data         0000000e  00800100  00003160  00003214  2**0
                  CONTENTS, ALLOC, LOAD, DATA
  1 .text         00003160  00000000  00000000  000000b4  2**1
                  CONTENTS, ALLOC, LOAD, READONLY, CODE
  2 .bss          000000b8  0080010e  0080010e  00003222  2**0
                  ALLOC
  3 .eeprom       00000016  00810000  00810000  00003222  2**0
                  CONTENTS, ALLOC, LOAD, DATA
  4 .comment      00000030  00000000  00000000  00003238  2**0
                  CONTENTS, READONLY
  5 .note.gnu.avr.deviceinfo 00000040  00000000  00000000  00003268  2**2
                  CONTENTS, READONLY
  6 .debug_aranges 00000060  00000000  00000000  000032a8  2**3
                  CONTENTS, READONLY, DEBUGGING
  7 .debug_info   000008d7  00000000  00000000  00003308  2**0
                  CONTENTS, READONLY, DEBUGGING
  8 .debug_abbrev 000006aa  00000000  00000000  00003bdf  2**0
                  CONTENTS, READONLY, DEBUGGING
  9 .debug_line   00000357  00000000  00000000  00004289  2**0
                  CONTENTS, READONLY, DEBUGGING
 10 .debug_str    00000252  00000000  00000000  000045e0  2**0
                  CONTENTS, READONLY, DEBUGGING

Disassembly of section .text:

00000000 <__vectors>:
       0:	0c 94 7b 00 	jmp	0xf6	; 0xf6 <__ctors_end>
       4:	0c 94 98 00 	jmp	0x130	; 0x130 <__bad_interrupt>
       8:	0c 94 98 00 	jmp	0x130	; 0x130 <__bad_interrupt>
       c:	0c 94 98 00 	jmp	0x130	; 0x130 <__bad_interrupt>
      10:	0c 94 98 00 	jmp	0x130	; 0x130 <__bad_interrupt>
      14:	0c 94 98 00 	jmp	0x130	; 0x130 <__bad_interrupt>
      18:	0c 94 98 00 	jmp	0x130	; 0x130 <__bad_interrupt>
      1c:	0c 94 98 00 	jmp	0x130	; 0x130 <__bad_interrupt>
      20:	0c 94 98 00 	jmp	0x130	; 0x130 <__bad_interrupt>
      24:	0c 94 98 00 	jmp	0x130	; 0x130 <__bad_interrupt>
      28:	0c 94 98 00 	jmp	0x130	; 0x130 <__bad_interrupt>
      2c:	0c 94 98 00 	jmp	0x130	; 0x130 <__bad_interrupt>
      30:	0c 94 98 00 	jmp	0x130	; 0x130 <__bad_interrupt>
      34:	0c 94 98 00 	jmp	0x130	; 0x130 <__bad_interrupt>
      38:	0c 94 98 00 	jmp	0x130	; 0x130 <__bad_interrupt>
      3c:	0c 94 98 00 	jmp	0x130	; 0x130 <__bad_interrupt>
      40:	0c 94 fd 09 	jmp	0x13fa	; 0x13fa <__vector_16>
      44:	0c 94 98 00 	jmp	0x130	; 0x130 <__bad_interrupt>
      48:	0c 94 98 00 	jmp	0x130	; 0x130 <__bad_interrupt>
      4c:	0c 94 98 00 	jmp	0x130	; 0x130 <__bad_interrupt>
      50:	0c 94 98 00 	jmp	0x130	; 0x130 <__bad_interrupt>
      54:	0c 94 98 00 	jmp	0x130	; 0x130 <__bad_interrupt>
      58:	0c 94 98 00 	jmp	0x130	; 0x130 <__bad_interrupt>
      5c:	0c 94 98 00 	jmp	0x130	; 0x130 <__bad_interrupt>
      60:	0c 94 98 00 	jmp	0x130	; 0x130 <__bad_interrupt>
      64:	0c 94 98 00 	jmp	0x130	; 0x130 <__bad_interrupt>
      68:	0c 94 98 00 	jmp	0x130	; 0x130 <__bad_interrupt>
      6c:	0c 94 98 00 	jmp	0x130	; 0x130 <__bad_interrupt>
      70:	0c 94 98 00 	jmp	0x130	; 0x130 <__bad_interrupt>
      74:	0c 94 98 00 	jmp	0x130	; 0x130 <__bad_interrupt>
      78:	0c 94 98 00 	jmp	0x130	; 0x130 <__bad_interrupt>
      7c:	08 00       	.word	0x0008	; ????
      7e:	00 00       	nop
      80:	be 92       	st	-X, r11
      82:	24 49       	sbci	r18, 0x94	; 148
      84:	12 3e       	cpi	r17, 0xE2	; 226
      86:	ab aa       	std	Y+51, r10	; 0x33
      88:	aa 2a       	or	r10, r26
      8a:	be cd       	rjmp	.-1156   	; 0xfffffc08 <__eeprom_end+0xff7efbf2>
      8c:	cc cc       	rjmp	.-1640   	; 0xfffffa26 <__eeprom_end+0xff7efa10>
      8e:	4c 3e       	cpi	r20, 0xEC	; 236
      90:	00 00       	nop
      92:	00 80       	ld	r0, Z
      94:	be ab       	std	Y+54, r27	; 0x36
      96:	aa aa       	std	Y+50, r10	; 0x32
      98:	aa 3e       	cpi	r26, 0xEA	; 234
      9a:	00 00       	nop
      9c:	00 00       	nop
      9e:	bf 00       	.word	0x00bf	; ????
      a0:	00 00       	nop
      a2:	80 3f       	cpi	r24, 0xF0	; 240
      a4:	00 00       	nop
      a6:	00 00       	nop
      a8:	00 08       	sbc	r0, r0
      aa:	41 78       	andi	r20, 0x81	; 129
      ac:	d3 bb       	out	0x13, r29	; 19
      ae:	43 87       	std	Z+11, r20	; 0x0b
      b0:	d1 13       	cpse	r29, r17
      b2:	3d 19       	sub	r19, r13
      b4:	0e 3c       	cpi	r16, 0xCE	; 206
      b6:	c3 bd       	out	0x23, r28	; 35
      b8:	42 82       	std	Z+2, r4	; 0x02
      ba:	ad 2b       	or	r26, r29
      bc:	3e 68       	ori	r19, 0x8E	; 142
      be:	ec 82       	std	Y+4, r14	; 0x04
      c0:	76 be       	out	0x36, r7	; 54
      c2:	d9 8f       	std	Y+25, r29	; 0x19
      c4:	e1 a9       	ldd	r30, Z+49	; 0x31
      c6:	3e 4c       	sbci	r19, 0xCE	; 206
      c8:	80 ef       	ldi	r24, 0xF0	; 240
      ca:	ff be       	out	0x3f, r15	; 63
      cc:	01 c4       	rjmp	.+2050   	; 0x8d0 <app_control+0x7a>
      ce:	ff 7f       	andi	r31, 0xFF	; 255
      d0:	3f 00       	.word	0x003f	; ????
      d2:	00 00       	nop
	...

000000d6 <__trampolines_end>:
	...
      e2:	00 00       	nop
      e4:	01 00       	.word	0x0001	; ????
	...
      ee:	00 00       	nop
      f0:	ff ff       	.word	0xffff	; ????
      f2:	00 00       	nop
	...

000000f6 <__ctors_end>:
      f6:	11 24       	eor	r1, r1
      f8:	1f be       	out	0x3f, r1	; 63
      fa:	cf ef       	ldi	r28, 0xFF	; 255
      fc:	d0 e1       	ldi	r29, 0x10	; 16
      fe:	de bf       	out	0x3e, r29	; 62
     100:	cd bf       	out	0x3d, r28	; 61

00000102 <__do_copy_data>:
     102:	11 e0       	ldi	r17, 0x01	; 1
     104:	a0 e0       	ldi	r26, 0x00	; 0
     106:	b1 e0       	ldi	r27, 0x01	; 1
     108:	e0 e6       	ldi	r30, 0x60	; 96
     10a:	f1 e3       	ldi	r31, 0x31	; 49
     10c:	02 c0       	rjmp	.+4      	; 0x112 <__do_copy_data+0x10>
     10e:	05 90       	lpm	r0, Z+
     110:	0d 92       	st	X+, r0
     112:	ae 30       	cpi	r26, 0x0E	; 14
     114:	b1 07       	cpc	r27, r17
     116:	d9 f7       	brne	.-10     	; 0x10e <__do_copy_data+0xc>

00000118 <__do_clear_bss>:
     118:	21 e0       	ldi	r18, 0x01	; 1
     11a:	ae e0       	ldi	r26, 0x0E	; 14
     11c:	b1 e0       	ldi	r27, 0x01	; 1
     11e:	01 c0       	rjmp	.+2      	; 0x122 <.do_clear_bss_start>

00000120 <.do_clear_bss_loop>:
     120:	1d 92       	st	X+, r1

00000122 <.do_clear_bss_start>:
     122:	a6 3c       	cpi	r26, 0xC6	; 198
     124:	b2 07       	cpc	r27, r18
     126:	e1 f7       	brne	.-8      	; 0x120 <.do_clear_bss_loop>
     128:	0e 94 8d 0a 	call	0x151a	; 0x151a <main>
     12c:	0c 94 ae 18 	jmp	0x315c	; 0x315c <_exit>

00000130 <__bad_interrupt>:
     130:	0c 94 00 00 	jmp	0	; 0x0 <__vectors>

00000134 <app_rotenc_update>:
     134:	0e 94 39 0f 	call	0x1e72	; 0x1e72 <rotenc_update>
     138:	80 e0       	ldi	r24, 0x00	; 0
     13a:	08 95       	ret

0000013c <app_button_update>:
     13c:	0e 94 c6 12 	call	0x258c	; 0x258c <switch_update>
     140:	80 e0       	ldi	r24, 0x00	; 0
     142:	08 95       	ret

00000144 <app_state_main>:
     144:	80 91 35 01 	lds	r24, 0x0135	; 0x800135 <app_state+0x16>
     148:	90 91 36 01 	lds	r25, 0x0136	; 0x800136 <app_state+0x17>
     14c:	18 16       	cp	r1, r24
     14e:	19 06       	cpc	r1, r25
     150:	2c f4       	brge	.+10     	; 0x15c <app_state_main+0x18>
     152:	80 91 3d 01 	lds	r24, 0x013D	; 0x80013d <app_state+0x1e>
     156:	61 e0       	ldi	r22, 0x01	; 1
     158:	8f 5f       	subi	r24, 0xFF	; 255
     15a:	06 c0       	rjmp	.+12     	; 0x168 <app_state_main+0x24>
     15c:	89 2b       	or	r24, r25
     15e:	59 f0       	breq	.+22     	; 0x176 <app_state_main+0x32>
     160:	80 91 3d 01 	lds	r24, 0x013D	; 0x80013d <app_state+0x1e>
     164:	61 e0       	ldi	r22, 0x01	; 1
     166:	81 50       	subi	r24, 0x01	; 1
     168:	0e 94 3b 0d 	call	0x1a76	; 0x1a76 <imin8>
     16c:	60 e0       	ldi	r22, 0x00	; 0
     16e:	0e 94 30 0d 	call	0x1a60	; 0x1a60 <imax8>
     172:	80 93 3d 01 	sts	0x013D, r24	; 0x80013d <app_state+0x1e>
     176:	0e 94 b0 11 	call	0x2360	; 0x2360 <srd_clear>
     17a:	80 91 3d 01 	lds	r24, 0x013D	; 0x80013d <app_state+0x1e>
     17e:	88 23       	and	r24, r24
     180:	61 f0       	breq	.+24     	; 0x19a <app_state_main+0x56>
     182:	81 30       	cpi	r24, 0x01	; 1
     184:	21 f5       	brne	.+72     	; 0x1ce <app_state_main+0x8a>
     186:	60 91 66 01 	lds	r22, 0x0166	; 0x800166 <app_state+0x47>
     18a:	70 91 67 01 	lds	r23, 0x0167	; 0x800167 <app_state+0x48>
     18e:	80 91 68 01 	lds	r24, 0x0168	; 0x800168 <app_state+0x49>
     192:	90 91 69 01 	lds	r25, 0x0169	; 0x800169 <app_state+0x4a>
     196:	41 e0       	ldi	r20, 0x01	; 1
     198:	09 c0       	rjmp	.+18     	; 0x1ac <app_state_main+0x68>
     19a:	60 91 5e 01 	lds	r22, 0x015E	; 0x80015e <app_state+0x3f>
     19e:	70 91 5f 01 	lds	r23, 0x015F	; 0x80015f <app_state+0x40>
     1a2:	80 91 60 01 	lds	r24, 0x0160	; 0x800160 <app_state+0x41>
     1a6:	90 91 61 01 	lds	r25, 0x0161	; 0x800161 <app_state+0x42>
     1aa:	40 e0       	ldi	r20, 0x00	; 0
     1ac:	0e 94 94 0a 	call	0x1528	; 0x1528 <mr_main>
     1b0:	0e 94 a7 11 	call	0x234e	; 0x234e <srd_display>
     1b4:	80 91 37 01 	lds	r24, 0x0137	; 0x800137 <app_state+0x18>
     1b8:	80 ff       	sbrs	r24, 0
     1ba:	0b c0       	rjmp	.+22     	; 0x1d2 <app_state_main+0x8e>
     1bc:	10 92 3d 01 	sts	0x013D, r1	; 0x80013d <app_state+0x1e>
     1c0:	86 eb       	ldi	r24, 0xB6	; 182
     1c2:	97 e0       	ldi	r25, 0x07	; 7
     1c4:	90 93 3c 01 	sts	0x013C, r25	; 0x80013c <app_state+0x1d>
     1c8:	80 93 3b 01 	sts	0x013B, r24	; 0x80013b <app_state+0x1c>
     1cc:	02 c0       	rjmp	.+4      	; 0x1d2 <app_state_main+0x8e>
     1ce:	84 e0       	ldi	r24, 0x04	; 4
     1d0:	08 95       	ret
     1d2:	80 e0       	ldi	r24, 0x00	; 0
     1d4:	08 95       	ret

000001d6 <app_state_menu_heater_onoff>:
     1d6:	80 91 35 01 	lds	r24, 0x0135	; 0x800135 <app_state+0x16>
     1da:	90 91 36 01 	lds	r25, 0x0136	; 0x800136 <app_state+0x17>
     1de:	89 2b       	or	r24, r25
     1e0:	91 f0       	breq	.+36     	; 0x206 <app_state_menu_heater_onoff+0x30>
     1e2:	80 91 5c 01 	lds	r24, 0x015C	; 0x80015c <app_state+0x3d>
     1e6:	91 e0       	ldi	r25, 0x01	; 1
     1e8:	81 11       	cpse	r24, r1
     1ea:	90 e0       	ldi	r25, 0x00	; 0
     1ec:	90 93 5c 01 	sts	0x015C, r25	; 0x80015c <app_state+0x3d>
     1f0:	81 11       	cpse	r24, r1
     1f2:	03 c0       	rjmp	.+6      	; 0x1fa <app_state_menu_heater_onoff+0x24>
     1f4:	0e 94 71 0a 	call	0x14e2	; 0x14e2 <heater_on>
     1f8:	02 c0       	rjmp	.+4      	; 0x1fe <app_state_menu_heater_onoff+0x28>
     1fa:	0e 94 80 0a 	call	0x1500	; 0x1500 <heater_off>
     1fe:	8e e3       	ldi	r24, 0x3E	; 62
     200:	91 e0       	ldi	r25, 0x01	; 1
     202:	0e 94 04 0f 	call	0x1e08	; 0x1e08 <pid_reset>
     206:	0e 94 b0 11 	call	0x2360	; 0x2360 <srd_clear>
     20a:	80 91 5c 01 	lds	r24, 0x015C	; 0x80015c <app_state+0x3d>
     20e:	0e 94 ee 0b 	call	0x17dc	; 0x17dc <mr_heater_menu_onoff>
     212:	0e 94 a7 11 	call	0x234e	; 0x234e <srd_display>
     216:	80 91 37 01 	lds	r24, 0x0137	; 0x800137 <app_state+0x18>
     21a:	80 ff       	sbrs	r24, 0
     21c:	09 c0       	rjmp	.+18     	; 0x230 <app_state_menu_heater_onoff+0x5a>
     21e:	81 e0       	ldi	r24, 0x01	; 1
     220:	80 93 3d 01 	sts	0x013D, r24	; 0x80013d <app_state+0x1e>
     224:	82 ed       	ldi	r24, 0xD2	; 210
     226:	94 e0       	ldi	r25, 0x04	; 4
     228:	90 93 3c 01 	sts	0x013C, r25	; 0x80013c <app_state+0x1d>
     22c:	80 93 3b 01 	sts	0x013B, r24	; 0x80013b <app_state+0x1c>
     230:	80 e0       	ldi	r24, 0x00	; 0
     232:	08 95       	ret

00000234 <app_state_menu_heater_target_temp>:
     234:	60 91 35 01 	lds	r22, 0x0135	; 0x800135 <app_state+0x16>
     238:	70 91 36 01 	lds	r23, 0x0136	; 0x800136 <app_state+0x17>
     23c:	61 15       	cp	r22, r1
     23e:	71 05       	cpc	r23, r1
     240:	49 f1       	breq	.+82     	; 0x294 <app_state_menu_heater_target_temp+0x60>
     242:	07 2e       	mov	r0, r23
     244:	00 0c       	add	r0, r0
     246:	88 0b       	sbc	r24, r24
     248:	99 0b       	sbc	r25, r25
     24a:	0e 94 45 16 	call	0x2c8a	; 0x2c8a <__floatsisf>
     24e:	20 e0       	ldi	r18, 0x00	; 0
     250:	30 e0       	ldi	r19, 0x00	; 0
     252:	40 e0       	ldi	r20, 0x00	; 0
     254:	5f e3       	ldi	r21, 0x3F	; 63
     256:	0e 94 5a 17 	call	0x2eb4	; 0x2eb4 <__mulsf3>
     25a:	20 91 1f 01 	lds	r18, 0x011F	; 0x80011f <app_state>
     25e:	30 91 20 01 	lds	r19, 0x0120	; 0x800120 <app_state+0x1>
     262:	40 91 21 01 	lds	r20, 0x0121	; 0x800121 <app_state+0x2>
     266:	50 91 22 01 	lds	r21, 0x0122	; 0x800122 <app_state+0x3>
     26a:	0e 94 ee 14 	call	0x29dc	; 0x29dc <__addsf3>
     26e:	20 e0       	ldi	r18, 0x00	; 0
     270:	30 e0       	ldi	r19, 0x00	; 0
     272:	48 ec       	ldi	r20, 0xC8	; 200
     274:	52 e4       	ldi	r21, 0x42	; 66
     276:	0e 94 70 0d 	call	0x1ae0	; 0x1ae0 <fmin>
     27a:	20 e0       	ldi	r18, 0x00	; 0
     27c:	30 e0       	ldi	r19, 0x00	; 0
     27e:	a9 01       	movw	r20, r18
     280:	0e 94 50 0d 	call	0x1aa0	; 0x1aa0 <fmax>
     284:	60 93 1f 01 	sts	0x011F, r22	; 0x80011f <app_state>
     288:	70 93 20 01 	sts	0x0120, r23	; 0x800120 <app_state+0x1>
     28c:	80 93 21 01 	sts	0x0121, r24	; 0x800121 <app_state+0x2>
     290:	90 93 22 01 	sts	0x0122, r25	; 0x800122 <app_state+0x3>
     294:	0e 94 b0 11 	call	0x2360	; 0x2360 <srd_clear>
     298:	60 91 1f 01 	lds	r22, 0x011F	; 0x80011f <app_state>
     29c:	70 91 20 01 	lds	r23, 0x0120	; 0x800120 <app_state+0x1>
     2a0:	80 91 21 01 	lds	r24, 0x0121	; 0x800121 <app_state+0x2>
     2a4:	90 91 22 01 	lds	r25, 0x0122	; 0x800122 <app_state+0x3>
     2a8:	0e 94 6a 0c 	call	0x18d4	; 0x18d4 <mr_heater_menu_target_temp>
     2ac:	0e 94 a7 11 	call	0x234e	; 0x234e <srd_display>
     2b0:	80 91 37 01 	lds	r24, 0x0137	; 0x800137 <app_state+0x18>
     2b4:	80 ff       	sbrs	r24, 0
     2b6:	09 c0       	rjmp	.+18     	; 0x2ca <app_state_menu_heater_target_temp+0x96>
     2b8:	82 e0       	ldi	r24, 0x02	; 2
     2ba:	80 93 3d 01 	sts	0x013D, r24	; 0x80013d <app_state+0x1e>
     2be:	82 ed       	ldi	r24, 0xD2	; 210
     2c0:	94 e0       	ldi	r25, 0x04	; 4
     2c2:	90 93 3c 01 	sts	0x013C, r25	; 0x80013c <app_state+0x1d>
     2c6:	80 93 3b 01 	sts	0x013B, r24	; 0x80013b <app_state+0x1c>
     2ca:	80 e0       	ldi	r24, 0x00	; 0
     2cc:	08 95       	ret

000002ce <app_state_menu_heater_controlling_tprobe>:
     2ce:	cf 93       	push	r28
     2d0:	20 91 35 01 	lds	r18, 0x0135	; 0x800135 <app_state+0x16>
     2d4:	30 91 36 01 	lds	r19, 0x0136	; 0x800136 <app_state+0x17>
     2d8:	80 91 3d 01 	lds	r24, 0x013D	; 0x80013d <app_state+0x1e>
     2dc:	12 16       	cp	r1, r18
     2de:	13 06       	cpc	r1, r19
     2e0:	1c f4       	brge	.+6      	; 0x2e8 <app_state_menu_heater_controlling_tprobe+0x1a>
     2e2:	63 e0       	ldi	r22, 0x03	; 3
     2e4:	8f 5f       	subi	r24, 0xFF	; 255
     2e6:	04 c0       	rjmp	.+8      	; 0x2f0 <app_state_menu_heater_controlling_tprobe+0x22>
     2e8:	23 2b       	or	r18, r19
     2ea:	49 f0       	breq	.+18     	; 0x2fe <app_state_menu_heater_controlling_tprobe+0x30>
     2ec:	63 e0       	ldi	r22, 0x03	; 3
     2ee:	81 50       	subi	r24, 0x01	; 1
     2f0:	0e 94 3b 0d 	call	0x1a76	; 0x1a76 <imin8>
     2f4:	60 e0       	ldi	r22, 0x00	; 0
     2f6:	0e 94 30 0d 	call	0x1a60	; 0x1a60 <imax8>
     2fa:	80 93 3d 01 	sts	0x013D, r24	; 0x80013d <app_state+0x1e>
     2fe:	e0 91 3d 01 	lds	r30, 0x013D	; 0x80013d <app_state+0x1e>
     302:	e4 30       	cpi	r30, 0x04	; 4
     304:	28 f4       	brcc	.+10     	; 0x310 <app_state_menu_heater_controlling_tprobe+0x42>
     306:	f0 e0       	ldi	r31, 0x00	; 0
     308:	e0 50       	subi	r30, 0x00	; 0
     30a:	ff 4f       	sbci	r31, 0xFF	; 255
     30c:	c0 81       	ld	r28, Z
     30e:	01 c0       	rjmp	.+2      	; 0x312 <app_state_menu_heater_controlling_tprobe+0x44>
     310:	c0 e0       	ldi	r28, 0x00	; 0
     312:	0e 94 b0 11 	call	0x2360	; 0x2360 <srd_clear>
     316:	6c 2f       	mov	r22, r28
     318:	80 91 3d 01 	lds	r24, 0x013D	; 0x80013d <app_state+0x1e>
     31c:	0e 94 a9 0b 	call	0x1752	; 0x1752 <mr_heater_menu_controlling_probe_select>
     320:	0e 94 a7 11 	call	0x234e	; 0x234e <srd_display>
     324:	80 91 37 01 	lds	r24, 0x0137	; 0x800137 <app_state+0x18>
     328:	80 ff       	sbrs	r24, 0
     32a:	0f c0       	rjmp	.+30     	; 0x34a <app_state_menu_heater_controlling_tprobe+0x7c>
     32c:	cc 23       	and	r28, r28
     32e:	69 f0       	breq	.+26     	; 0x34a <app_state_menu_heater_controlling_tprobe+0x7c>
     330:	80 91 3d 01 	lds	r24, 0x013D	; 0x80013d <app_state+0x1e>
     334:	80 93 33 01 	sts	0x0133, r24	; 0x800133 <app_state+0x14>
     338:	83 e0       	ldi	r24, 0x03	; 3
     33a:	80 93 3d 01 	sts	0x013D, r24	; 0x80013d <app_state+0x1e>
     33e:	82 ed       	ldi	r24, 0xD2	; 210
     340:	94 e0       	ldi	r25, 0x04	; 4
     342:	90 93 3c 01 	sts	0x013C, r25	; 0x80013c <app_state+0x1d>
     346:	80 93 3b 01 	sts	0x013B, r24	; 0x80013b <app_state+0x1c>
     34a:	80 e0       	ldi	r24, 0x00	; 0
     34c:	cf 91       	pop	r28
     34e:	08 95       	ret

00000350 <app_state_menu_heater_pid_p>:
     350:	8f 92       	push	r8
     352:	9f 92       	push	r9
     354:	af 92       	push	r10
     356:	bf 92       	push	r11
     358:	cf 92       	push	r12
     35a:	df 92       	push	r13
     35c:	ef 92       	push	r14
     35e:	ff 92       	push	r15
     360:	0f 93       	push	r16
     362:	1f 93       	push	r17
     364:	60 91 35 01 	lds	r22, 0x0135	; 0x800135 <app_state+0x16>
     368:	70 91 36 01 	lds	r23, 0x0136	; 0x800136 <app_state+0x17>
     36c:	61 15       	cp	r22, r1
     36e:	71 05       	cpc	r23, r1
     370:	09 f4       	brne	.+2      	; 0x374 <app_state_menu_heater_pid_p+0x24>
     372:	4c c0       	rjmp	.+152    	; 0x40c <__LOCK_REGION_LENGTH__+0xc>
     374:	07 2e       	mov	r0, r23
     376:	00 0c       	add	r0, r0
     378:	88 0b       	sbc	r24, r24
     37a:	99 0b       	sbc	r25, r25
     37c:	0e 94 45 16 	call	0x2c8a	; 0x2c8a <__floatsisf>
     380:	2a e0       	ldi	r18, 0x0A	; 10
     382:	37 ed       	ldi	r19, 0xD7	; 215
     384:	43 e2       	ldi	r20, 0x23	; 35
     386:	5c e3       	ldi	r21, 0x3C	; 60
     388:	0e 94 5a 17 	call	0x2eb4	; 0x2eb4 <__mulsf3>
     38c:	20 91 23 01 	lds	r18, 0x0123	; 0x800123 <app_state+0x4>
     390:	30 91 24 01 	lds	r19, 0x0124	; 0x800124 <app_state+0x5>
     394:	40 91 25 01 	lds	r20, 0x0125	; 0x800125 <app_state+0x6>
     398:	50 91 26 01 	lds	r21, 0x0126	; 0x800126 <app_state+0x7>
     39c:	0e 94 ee 14 	call	0x29dc	; 0x29dc <__addsf3>
     3a0:	20 e0       	ldi	r18, 0x00	; 0
     3a2:	30 e0       	ldi	r19, 0x00	; 0
     3a4:	4a e7       	ldi	r20, 0x7A	; 122
     3a6:	54 e4       	ldi	r21, 0x44	; 68
     3a8:	0e 94 70 0d 	call	0x1ae0	; 0x1ae0 <fmin>
     3ac:	20 e0       	ldi	r18, 0x00	; 0
     3ae:	30 e0       	ldi	r19, 0x00	; 0
     3b0:	a9 01       	movw	r20, r18
     3b2:	0e 94 50 0d 	call	0x1aa0	; 0x1aa0 <fmax>
     3b6:	ab 01       	movw	r20, r22
     3b8:	bc 01       	movw	r22, r24
     3ba:	40 93 23 01 	sts	0x0123, r20	; 0x800123 <app_state+0x4>
     3be:	50 93 24 01 	sts	0x0124, r21	; 0x800124 <app_state+0x5>
     3c2:	60 93 25 01 	sts	0x0125, r22	; 0x800125 <app_state+0x6>
     3c6:	70 93 26 01 	sts	0x0126, r23	; 0x800126 <app_state+0x7>
     3ca:	c0 90 2b 01 	lds	r12, 0x012B	; 0x80012b <app_state+0xc>
     3ce:	d0 90 2c 01 	lds	r13, 0x012C	; 0x80012c <app_state+0xd>
     3d2:	e0 90 2d 01 	lds	r14, 0x012D	; 0x80012d <app_state+0xe>
     3d6:	f0 90 2e 01 	lds	r15, 0x012E	; 0x80012e <app_state+0xf>
     3da:	00 91 27 01 	lds	r16, 0x0127	; 0x800127 <app_state+0x8>
     3de:	10 91 28 01 	lds	r17, 0x0128	; 0x800128 <app_state+0x9>
     3e2:	20 91 29 01 	lds	r18, 0x0129	; 0x800129 <app_state+0xa>
     3e6:	30 91 2a 01 	lds	r19, 0x012A	; 0x80012a <app_state+0xb>
     3ea:	82 e4       	ldi	r24, 0x42	; 66
     3ec:	8f 93       	push	r24
     3ee:	88 ec       	ldi	r24, 0xC8	; 200
     3f0:	8f 93       	push	r24
     3f2:	1f 92       	push	r1
     3f4:	1f 92       	push	r1
     3f6:	81 2c       	mov	r8, r1
     3f8:	91 2c       	mov	r9, r1
     3fa:	54 01       	movw	r10, r8
     3fc:	8e e3       	ldi	r24, 0x3E	; 62
     3fe:	91 e0       	ldi	r25, 0x01	; 1
     400:	0e 94 cc 0d 	call	0x1b98	; 0x1b98 <pid_set_params>
     404:	0f 90       	pop	r0
     406:	0f 90       	pop	r0
     408:	0f 90       	pop	r0
     40a:	0f 90       	pop	r0
     40c:	0e 94 b0 11 	call	0x2360	; 0x2360 <srd_clear>
     410:	60 91 23 01 	lds	r22, 0x0123	; 0x800123 <app_state+0x4>
     414:	70 91 24 01 	lds	r23, 0x0124	; 0x800124 <app_state+0x5>
     418:	80 91 25 01 	lds	r24, 0x0125	; 0x800125 <app_state+0x6>
     41c:	90 91 26 01 	lds	r25, 0x0126	; 0x800126 <app_state+0x7>
     420:	0e 94 0a 0c 	call	0x1814	; 0x1814 <mr_heater_menu_pid_p>
     424:	0e 94 a7 11 	call	0x234e	; 0x234e <srd_display>
     428:	80 91 37 01 	lds	r24, 0x0137	; 0x800137 <app_state+0x18>
     42c:	80 ff       	sbrs	r24, 0
     42e:	09 c0       	rjmp	.+18     	; 0x442 <__LOCK_REGION_LENGTH__+0x42>
     430:	81 e0       	ldi	r24, 0x01	; 1
     432:	80 93 3d 01 	sts	0x013D, r24	; 0x80013d <app_state+0x1e>
     436:	8b e2       	ldi	r24, 0x2B	; 43
     438:	95 e0       	ldi	r25, 0x05	; 5
     43a:	90 93 3c 01 	sts	0x013C, r25	; 0x80013c <app_state+0x1d>
     43e:	80 93 3b 01 	sts	0x013B, r24	; 0x80013b <app_state+0x1c>
     442:	80 e0       	ldi	r24, 0x00	; 0
     444:	1f 91       	pop	r17
     446:	0f 91       	pop	r16
     448:	ff 90       	pop	r15
     44a:	ef 90       	pop	r14
     44c:	df 90       	pop	r13
     44e:	cf 90       	pop	r12
     450:	bf 90       	pop	r11
     452:	af 90       	pop	r10
     454:	9f 90       	pop	r9
     456:	8f 90       	pop	r8
     458:	08 95       	ret

0000045a <app_state_menu_heater_pid_i>:
     45a:	8f 92       	push	r8
     45c:	9f 92       	push	r9
     45e:	af 92       	push	r10
     460:	bf 92       	push	r11
     462:	cf 92       	push	r12
     464:	df 92       	push	r13
     466:	ef 92       	push	r14
     468:	ff 92       	push	r15
     46a:	0f 93       	push	r16
     46c:	1f 93       	push	r17
     46e:	60 91 35 01 	lds	r22, 0x0135	; 0x800135 <app_state+0x16>
     472:	70 91 36 01 	lds	r23, 0x0136	; 0x800136 <app_state+0x17>
     476:	61 15       	cp	r22, r1
     478:	71 05       	cpc	r23, r1
     47a:	09 f4       	brne	.+2      	; 0x47e <app_state_menu_heater_pid_i+0x24>
     47c:	4c c0       	rjmp	.+152    	; 0x516 <app_state_menu_heater_pid_i+0xbc>
     47e:	07 2e       	mov	r0, r23
     480:	00 0c       	add	r0, r0
     482:	88 0b       	sbc	r24, r24
     484:	99 0b       	sbc	r25, r25
     486:	0e 94 45 16 	call	0x2c8a	; 0x2c8a <__floatsisf>
     48a:	2a e0       	ldi	r18, 0x0A	; 10
     48c:	37 ed       	ldi	r19, 0xD7	; 215
     48e:	43 e2       	ldi	r20, 0x23	; 35
     490:	5c e3       	ldi	r21, 0x3C	; 60
     492:	0e 94 5a 17 	call	0x2eb4	; 0x2eb4 <__mulsf3>
     496:	20 91 27 01 	lds	r18, 0x0127	; 0x800127 <app_state+0x8>
     49a:	30 91 28 01 	lds	r19, 0x0128	; 0x800128 <app_state+0x9>
     49e:	40 91 29 01 	lds	r20, 0x0129	; 0x800129 <app_state+0xa>
     4a2:	50 91 2a 01 	lds	r21, 0x012A	; 0x80012a <app_state+0xb>
     4a6:	0e 94 ee 14 	call	0x29dc	; 0x29dc <__addsf3>
     4aa:	20 e0       	ldi	r18, 0x00	; 0
     4ac:	30 e0       	ldi	r19, 0x00	; 0
     4ae:	4a e7       	ldi	r20, 0x7A	; 122
     4b0:	54 e4       	ldi	r21, 0x44	; 68
     4b2:	0e 94 70 0d 	call	0x1ae0	; 0x1ae0 <fmin>
     4b6:	20 e0       	ldi	r18, 0x00	; 0
     4b8:	30 e0       	ldi	r19, 0x00	; 0
     4ba:	a9 01       	movw	r20, r18
     4bc:	0e 94 50 0d 	call	0x1aa0	; 0x1aa0 <fmax>
     4c0:	8b 01       	movw	r16, r22
     4c2:	9c 01       	movw	r18, r24
     4c4:	60 93 27 01 	sts	0x0127, r22	; 0x800127 <app_state+0x8>
     4c8:	70 93 28 01 	sts	0x0128, r23	; 0x800128 <app_state+0x9>
     4cc:	80 93 29 01 	sts	0x0129, r24	; 0x800129 <app_state+0xa>
     4d0:	90 93 2a 01 	sts	0x012A, r25	; 0x80012a <app_state+0xb>
     4d4:	c0 90 2b 01 	lds	r12, 0x012B	; 0x80012b <app_state+0xc>
     4d8:	d0 90 2c 01 	lds	r13, 0x012C	; 0x80012c <app_state+0xd>
     4dc:	e0 90 2d 01 	lds	r14, 0x012D	; 0x80012d <app_state+0xe>
     4e0:	f0 90 2e 01 	lds	r15, 0x012E	; 0x80012e <app_state+0xf>
     4e4:	40 91 23 01 	lds	r20, 0x0123	; 0x800123 <app_state+0x4>
     4e8:	50 91 24 01 	lds	r21, 0x0124	; 0x800124 <app_state+0x5>
     4ec:	60 91 25 01 	lds	r22, 0x0125	; 0x800125 <app_state+0x6>
     4f0:	70 91 26 01 	lds	r23, 0x0126	; 0x800126 <app_state+0x7>
     4f4:	82 e4       	ldi	r24, 0x42	; 66
     4f6:	8f 93       	push	r24
     4f8:	88 ec       	ldi	r24, 0xC8	; 200
     4fa:	8f 93       	push	r24
     4fc:	1f 92       	push	r1
     4fe:	1f 92       	push	r1
     500:	81 2c       	mov	r8, r1
     502:	91 2c       	mov	r9, r1
     504:	54 01       	movw	r10, r8
     506:	8e e3       	ldi	r24, 0x3E	; 62
     508:	91 e0       	ldi	r25, 0x01	; 1
     50a:	0e 94 cc 0d 	call	0x1b98	; 0x1b98 <pid_set_params>
     50e:	0f 90       	pop	r0
     510:	0f 90       	pop	r0
     512:	0f 90       	pop	r0
     514:	0f 90       	pop	r0
     516:	0e 94 b0 11 	call	0x2360	; 0x2360 <srd_clear>
     51a:	60 91 27 01 	lds	r22, 0x0127	; 0x800127 <app_state+0x8>
     51e:	70 91 28 01 	lds	r23, 0x0128	; 0x800128 <app_state+0x9>
     522:	80 91 29 01 	lds	r24, 0x0129	; 0x800129 <app_state+0xa>
     526:	90 91 2a 01 	lds	r25, 0x012A	; 0x80012a <app_state+0xb>
     52a:	0e 94 22 0c 	call	0x1844	; 0x1844 <mr_heater_menu_pid_i>
     52e:	0e 94 a7 11 	call	0x234e	; 0x234e <srd_display>
     532:	80 91 37 01 	lds	r24, 0x0137	; 0x800137 <app_state+0x18>
     536:	80 ff       	sbrs	r24, 0
     538:	09 c0       	rjmp	.+18     	; 0x54c <app_state_menu_heater_pid_i+0xf2>
     53a:	82 e0       	ldi	r24, 0x02	; 2
     53c:	80 93 3d 01 	sts	0x013D, r24	; 0x80013d <app_state+0x1e>
     540:	8b e2       	ldi	r24, 0x2B	; 43
     542:	95 e0       	ldi	r25, 0x05	; 5
     544:	90 93 3c 01 	sts	0x013C, r25	; 0x80013c <app_state+0x1d>
     548:	80 93 3b 01 	sts	0x013B, r24	; 0x80013b <app_state+0x1c>
     54c:	80 e0       	ldi	r24, 0x00	; 0
     54e:	1f 91       	pop	r17
     550:	0f 91       	pop	r16
     552:	ff 90       	pop	r15
     554:	ef 90       	pop	r14
     556:	df 90       	pop	r13
     558:	cf 90       	pop	r12
     55a:	bf 90       	pop	r11
     55c:	af 90       	pop	r10
     55e:	9f 90       	pop	r9
     560:	8f 90       	pop	r8
     562:	08 95       	ret

00000564 <app_state_menu_heater_pid_d>:
     564:	8f 92       	push	r8
     566:	9f 92       	push	r9
     568:	af 92       	push	r10
     56a:	bf 92       	push	r11
     56c:	cf 92       	push	r12
     56e:	df 92       	push	r13
     570:	ef 92       	push	r14
     572:	ff 92       	push	r15
     574:	0f 93       	push	r16
     576:	1f 93       	push	r17
     578:	60 91 35 01 	lds	r22, 0x0135	; 0x800135 <app_state+0x16>
     57c:	70 91 36 01 	lds	r23, 0x0136	; 0x800136 <app_state+0x17>
     580:	61 15       	cp	r22, r1
     582:	71 05       	cpc	r23, r1
     584:	09 f4       	brne	.+2      	; 0x588 <app_state_menu_heater_pid_d+0x24>
     586:	4c c0       	rjmp	.+152    	; 0x620 <app_state_menu_heater_pid_d+0xbc>
     588:	07 2e       	mov	r0, r23
     58a:	00 0c       	add	r0, r0
     58c:	88 0b       	sbc	r24, r24
     58e:	99 0b       	sbc	r25, r25
     590:	0e 94 45 16 	call	0x2c8a	; 0x2c8a <__floatsisf>
     594:	2a e0       	ldi	r18, 0x0A	; 10
     596:	37 ed       	ldi	r19, 0xD7	; 215
     598:	43 e2       	ldi	r20, 0x23	; 35
     59a:	5c e3       	ldi	r21, 0x3C	; 60
     59c:	0e 94 5a 17 	call	0x2eb4	; 0x2eb4 <__mulsf3>
     5a0:	20 91 2b 01 	lds	r18, 0x012B	; 0x80012b <app_state+0xc>
     5a4:	30 91 2c 01 	lds	r19, 0x012C	; 0x80012c <app_state+0xd>
     5a8:	40 91 2d 01 	lds	r20, 0x012D	; 0x80012d <app_state+0xe>
     5ac:	50 91 2e 01 	lds	r21, 0x012E	; 0x80012e <app_state+0xf>
     5b0:	0e 94 ee 14 	call	0x29dc	; 0x29dc <__addsf3>
     5b4:	20 e0       	ldi	r18, 0x00	; 0
     5b6:	30 e0       	ldi	r19, 0x00	; 0
     5b8:	4a e7       	ldi	r20, 0x7A	; 122
     5ba:	54 e4       	ldi	r21, 0x44	; 68
     5bc:	0e 94 70 0d 	call	0x1ae0	; 0x1ae0 <fmin>
     5c0:	20 e0       	ldi	r18, 0x00	; 0
     5c2:	30 e0       	ldi	r19, 0x00	; 0
     5c4:	a9 01       	movw	r20, r18
     5c6:	0e 94 50 0d 	call	0x1aa0	; 0x1aa0 <fmax>
     5ca:	6b 01       	movw	r12, r22
     5cc:	7c 01       	movw	r14, r24
     5ce:	60 93 2b 01 	sts	0x012B, r22	; 0x80012b <app_state+0xc>
     5d2:	70 93 2c 01 	sts	0x012C, r23	; 0x80012c <app_state+0xd>
     5d6:	80 93 2d 01 	sts	0x012D, r24	; 0x80012d <app_state+0xe>
     5da:	90 93 2e 01 	sts	0x012E, r25	; 0x80012e <app_state+0xf>
     5de:	00 91 27 01 	lds	r16, 0x0127	; 0x800127 <app_state+0x8>
     5e2:	10 91 28 01 	lds	r17, 0x0128	; 0x800128 <app_state+0x9>
     5e6:	20 91 29 01 	lds	r18, 0x0129	; 0x800129 <app_state+0xa>
     5ea:	30 91 2a 01 	lds	r19, 0x012A	; 0x80012a <app_state+0xb>
     5ee:	40 91 23 01 	lds	r20, 0x0123	; 0x800123 <app_state+0x4>
     5f2:	50 91 24 01 	lds	r21, 0x0124	; 0x800124 <app_state+0x5>
     5f6:	60 91 25 01 	lds	r22, 0x0125	; 0x800125 <app_state+0x6>
     5fa:	70 91 26 01 	lds	r23, 0x0126	; 0x800126 <app_state+0x7>
     5fe:	82 e4       	ldi	r24, 0x42	; 66
     600:	8f 93       	push	r24
     602:	88 ec       	ldi	r24, 0xC8	; 200
     604:	8f 93       	push	r24
     606:	1f 92       	push	r1
     608:	1f 92       	push	r1
     60a:	81 2c       	mov	r8, r1
     60c:	91 2c       	mov	r9, r1
     60e:	54 01       	movw	r10, r8
     610:	8e e3       	ldi	r24, 0x3E	; 62
     612:	91 e0       	ldi	r25, 0x01	; 1
     614:	0e 94 cc 0d 	call	0x1b98	; 0x1b98 <pid_set_params>
     618:	0f 90       	pop	r0
     61a:	0f 90       	pop	r0
     61c:	0f 90       	pop	r0
     61e:	0f 90       	pop	r0
     620:	0e 94 b0 11 	call	0x2360	; 0x2360 <srd_clear>
     624:	60 91 2b 01 	lds	r22, 0x012B	; 0x80012b <app_state+0xc>
     628:	70 91 2c 01 	lds	r23, 0x012C	; 0x80012c <app_state+0xd>
     62c:	80 91 2d 01 	lds	r24, 0x012D	; 0x80012d <app_state+0xe>
     630:	90 91 2e 01 	lds	r25, 0x012E	; 0x80012e <app_state+0xf>
     634:	0e 94 3a 0c 	call	0x1874	; 0x1874 <mr_heater_menu_pid_d>
     638:	0e 94 a7 11 	call	0x234e	; 0x234e <srd_display>
     63c:	80 91 37 01 	lds	r24, 0x0137	; 0x800137 <app_state+0x18>
     640:	80 ff       	sbrs	r24, 0
     642:	09 c0       	rjmp	.+18     	; 0x656 <app_state_menu_heater_pid_d+0xf2>
     644:	83 e0       	ldi	r24, 0x03	; 3
     646:	80 93 3d 01 	sts	0x013D, r24	; 0x80013d <app_state+0x1e>
     64a:	8b e2       	ldi	r24, 0x2B	; 43
     64c:	95 e0       	ldi	r25, 0x05	; 5
     64e:	90 93 3c 01 	sts	0x013C, r25	; 0x80013c <app_state+0x1d>
     652:	80 93 3b 01 	sts	0x013B, r24	; 0x80013b <app_state+0x1c>
     656:	80 e0       	ldi	r24, 0x00	; 0
     658:	1f 91       	pop	r17
     65a:	0f 91       	pop	r16
     65c:	ff 90       	pop	r15
     65e:	ef 90       	pop	r14
     660:	df 90       	pop	r13
     662:	cf 90       	pop	r12
     664:	bf 90       	pop	r11
     666:	af 90       	pop	r10
     668:	9f 90       	pop	r9
     66a:	8f 90       	pop	r8
     66c:	08 95       	ret

0000066e <app_state_menu_heater_offset>:
     66e:	60 91 35 01 	lds	r22, 0x0135	; 0x800135 <app_state+0x16>
     672:	70 91 36 01 	lds	r23, 0x0136	; 0x800136 <app_state+0x17>
     676:	61 15       	cp	r22, r1
     678:	71 05       	cpc	r23, r1
     67a:	51 f1       	breq	.+84     	; 0x6d0 <app_state_menu_heater_offset+0x62>
     67c:	07 2e       	mov	r0, r23
     67e:	00 0c       	add	r0, r0
     680:	88 0b       	sbc	r24, r24
     682:	99 0b       	sbc	r25, r25
     684:	0e 94 45 16 	call	0x2c8a	; 0x2c8a <__floatsisf>
     688:	20 e0       	ldi	r18, 0x00	; 0
     68a:	30 e0       	ldi	r19, 0x00	; 0
     68c:	40 e0       	ldi	r20, 0x00	; 0
     68e:	5f e3       	ldi	r21, 0x3F	; 63
     690:	0e 94 5a 17 	call	0x2eb4	; 0x2eb4 <__mulsf3>
     694:	20 91 2f 01 	lds	r18, 0x012F	; 0x80012f <app_state+0x10>
     698:	30 91 30 01 	lds	r19, 0x0130	; 0x800130 <app_state+0x11>
     69c:	40 91 31 01 	lds	r20, 0x0131	; 0x800131 <app_state+0x12>
     6a0:	50 91 32 01 	lds	r21, 0x0132	; 0x800132 <app_state+0x13>
     6a4:	0e 94 ee 14 	call	0x29dc	; 0x29dc <__addsf3>
     6a8:	20 e0       	ldi	r18, 0x00	; 0
     6aa:	30 e0       	ldi	r19, 0x00	; 0
     6ac:	48 e4       	ldi	r20, 0x48	; 72
     6ae:	52 e4       	ldi	r21, 0x42	; 66
     6b0:	0e 94 70 0d 	call	0x1ae0	; 0x1ae0 <fmin>
     6b4:	20 e0       	ldi	r18, 0x00	; 0
     6b6:	30 e0       	ldi	r19, 0x00	; 0
     6b8:	48 e4       	ldi	r20, 0x48	; 72
     6ba:	52 ec       	ldi	r21, 0xC2	; 194
     6bc:	0e 94 50 0d 	call	0x1aa0	; 0x1aa0 <fmax>
     6c0:	60 93 2f 01 	sts	0x012F, r22	; 0x80012f <app_state+0x10>
     6c4:	70 93 30 01 	sts	0x0130, r23	; 0x800130 <app_state+0x11>
     6c8:	80 93 31 01 	sts	0x0131, r24	; 0x800131 <app_state+0x12>
     6cc:	90 93 32 01 	sts	0x0132, r25	; 0x800132 <app_state+0x13>
     6d0:	0e 94 b0 11 	call	0x2360	; 0x2360 <srd_clear>
     6d4:	60 91 2f 01 	lds	r22, 0x012F	; 0x80012f <app_state+0x10>
     6d8:	70 91 30 01 	lds	r23, 0x0130	; 0x800130 <app_state+0x11>
     6dc:	80 91 31 01 	lds	r24, 0x0131	; 0x800131 <app_state+0x12>
     6e0:	90 91 32 01 	lds	r25, 0x0132	; 0x800132 <app_state+0x13>
     6e4:	0e 94 52 0c 	call	0x18a4	; 0x18a4 <mr_heater_menu_offset>
     6e8:	0e 94 a7 11 	call	0x234e	; 0x234e <srd_display>
     6ec:	80 91 37 01 	lds	r24, 0x0137	; 0x800137 <app_state+0x18>
     6f0:	80 ff       	sbrs	r24, 0
     6f2:	09 c0       	rjmp	.+18     	; 0x706 <app_state_menu_heater_offset+0x98>
     6f4:	85 e0       	ldi	r24, 0x05	; 5
     6f6:	80 93 3d 01 	sts	0x013D, r24	; 0x80013d <app_state+0x1e>
     6fa:	82 ed       	ldi	r24, 0xD2	; 210
     6fc:	94 e0       	ldi	r25, 0x04	; 4
     6fe:	90 93 3c 01 	sts	0x013C, r25	; 0x80013c <app_state+0x1d>
     702:	80 93 3b 01 	sts	0x013B, r24	; 0x80013b <app_state+0x1c>
     706:	80 e0       	ldi	r24, 0x00	; 0
     708:	08 95       	ret

0000070a <app_state_menu_stirrer_duty_cycle>:
     70a:	80 91 35 01 	lds	r24, 0x0135	; 0x800135 <app_state+0x16>
     70e:	90 91 36 01 	lds	r25, 0x0136	; 0x800136 <app_state+0x17>
     712:	00 97       	sbiw	r24, 0x00	; 0
     714:	29 f1       	breq	.+74     	; 0x760 <app_state_menu_stirrer_duty_cycle+0x56>
     716:	20 91 5b 01 	lds	r18, 0x015B	; 0x80015b <app_state+0x3c>
     71a:	64 e6       	ldi	r22, 0x64	; 100
     71c:	70 e0       	ldi	r23, 0x00	; 0
     71e:	82 0f       	add	r24, r18
     720:	91 1d       	adc	r25, r1
     722:	0e 94 40 0d 	call	0x1a80	; 0x1a80 <imin16>
     726:	60 e0       	ldi	r22, 0x00	; 0
     728:	70 e0       	ldi	r23, 0x00	; 0
     72a:	0e 94 35 0d 	call	0x1a6a	; 0x1a6a <imax16>
     72e:	80 93 5b 01 	sts	0x015B, r24	; 0x80015b <app_state+0x3c>
     732:	90 91 5d 01 	lds	r25, 0x015D	; 0x80015d <app_state+0x3e>
     736:	91 11       	cpse	r25, r1
     738:	05 c0       	rjmp	.+10     	; 0x744 <app_state_menu_stirrer_duty_cycle+0x3a>
     73a:	88 23       	and	r24, r24
     73c:	39 f0       	breq	.+14     	; 0x74c <app_state_menu_stirrer_duty_cycle+0x42>
     73e:	0e 94 11 12 	call	0x2422	; 0x2422 <stirrer_on>
     742:	04 c0       	rjmp	.+8      	; 0x74c <app_state_menu_stirrer_duty_cycle+0x42>
     744:	81 11       	cpse	r24, r1
     746:	02 c0       	rjmp	.+4      	; 0x74c <app_state_menu_stirrer_duty_cycle+0x42>
     748:	0e 94 24 12 	call	0x2448	; 0x2448 <stirrer_off>
     74c:	80 91 5b 01 	lds	r24, 0x015B	; 0x80015b <app_state+0x3c>
     750:	91 e0       	ldi	r25, 0x01	; 1
     752:	81 11       	cpse	r24, r1
     754:	01 c0       	rjmp	.+2      	; 0x758 <app_state_menu_stirrer_duty_cycle+0x4e>
     756:	90 e0       	ldi	r25, 0x00	; 0
     758:	90 93 5d 01 	sts	0x015D, r25	; 0x80015d <app_state+0x3e>
     75c:	0e 94 fa 11 	call	0x23f4	; 0x23f4 <stirrer_set_duty_cycle>
     760:	0e 94 b0 11 	call	0x2360	; 0x2360 <srd_clear>
     764:	80 91 5b 01 	lds	r24, 0x015B	; 0x80015b <app_state+0x3c>
     768:	0e 94 6c 0c 	call	0x18d8	; 0x18d8 <mr_stirrer_menu_dc>
     76c:	0e 94 a7 11 	call	0x234e	; 0x234e <srd_display>
     770:	80 91 37 01 	lds	r24, 0x0137	; 0x800137 <app_state+0x18>
     774:	80 ff       	sbrs	r24, 0
     776:	09 c0       	rjmp	.+18     	; 0x78a <app_state_menu_stirrer_duty_cycle+0x80>
     778:	81 e0       	ldi	r24, 0x01	; 1
     77a:	80 93 3d 01 	sts	0x013D, r24	; 0x80013d <app_state+0x1e>
     77e:	85 e7       	ldi	r24, 0x75	; 117
     780:	95 e0       	ldi	r25, 0x05	; 5
     782:	90 93 3c 01 	sts	0x013C, r25	; 0x80013c <app_state+0x1d>
     786:	80 93 3b 01 	sts	0x013B, r24	; 0x80013b <app_state+0x1c>
     78a:	80 e0       	ldi	r24, 0x00	; 0
     78c:	08 95       	ret

0000078e <app_state_menu_tprobe0_calib>:
     78e:	0e 94 b0 11 	call	0x2360	; 0x2360 <srd_clear>
     792:	60 91 62 01 	lds	r22, 0x0162	; 0x800162 <app_state+0x43>
     796:	70 91 63 01 	lds	r23, 0x0163	; 0x800163 <app_state+0x44>
     79a:	80 91 64 01 	lds	r24, 0x0164	; 0x800164 <app_state+0x45>
     79e:	90 91 65 01 	lds	r25, 0x0165	; 0x800165 <app_state+0x46>
     7a2:	0e 94 b5 0c 	call	0x196a	; 0x196a <mr_tprobe_calib_menu>
     7a6:	0e 94 a7 11 	call	0x234e	; 0x234e <srd_display>
     7aa:	80 91 37 01 	lds	r24, 0x0137	; 0x800137 <app_state+0x18>
     7ae:	80 ff       	sbrs	r24, 0
     7b0:	09 c0       	rjmp	.+18     	; 0x7c4 <app_state_menu_tprobe0_calib+0x36>
     7b2:	81 e0       	ldi	r24, 0x01	; 1
     7b4:	80 93 3d 01 	sts	0x013D, r24	; 0x80013d <app_state+0x1e>
     7b8:	80 eb       	ldi	r24, 0xB0	; 176
     7ba:	95 e0       	ldi	r25, 0x05	; 5
     7bc:	90 93 3c 01 	sts	0x013C, r25	; 0x80013c <app_state+0x1d>
     7c0:	80 93 3b 01 	sts	0x013B, r24	; 0x80013b <app_state+0x1c>
     7c4:	80 e0       	ldi	r24, 0x00	; 0
     7c6:	08 95       	ret

000007c8 <app_state_menu_tprobe1_calib>:
     7c8:	0e 94 b0 11 	call	0x2360	; 0x2360 <srd_clear>
     7cc:	60 91 6a 01 	lds	r22, 0x016A	; 0x80016a <app_state+0x4b>
     7d0:	70 91 6b 01 	lds	r23, 0x016B	; 0x80016b <app_state+0x4c>
     7d4:	80 91 6c 01 	lds	r24, 0x016C	; 0x80016c <app_state+0x4d>
     7d8:	90 91 6d 01 	lds	r25, 0x016D	; 0x80016d <app_state+0x4e>
     7dc:	0e 94 b5 0c 	call	0x196a	; 0x196a <mr_tprobe_calib_menu>
     7e0:	0e 94 a7 11 	call	0x234e	; 0x234e <srd_display>
     7e4:	80 91 37 01 	lds	r24, 0x0137	; 0x800137 <app_state+0x18>
     7e8:	80 ff       	sbrs	r24, 0
     7ea:	09 c0       	rjmp	.+18     	; 0x7fe <app_state_menu_tprobe1_calib+0x36>
     7ec:	82 e0       	ldi	r24, 0x02	; 2
     7ee:	80 93 3d 01 	sts	0x013D, r24	; 0x80013d <app_state+0x1e>
     7f2:	80 eb       	ldi	r24, 0xB0	; 176
     7f4:	95 e0       	ldi	r25, 0x05	; 5
     7f6:	90 93 3c 01 	sts	0x013C, r25	; 0x80013c <app_state+0x1d>
     7fa:	80 93 3b 01 	sts	0x013B, r24	; 0x80013b <app_state+0x1c>
     7fe:	80 e0       	ldi	r24, 0x00	; 0
     800:	08 95       	ret

00000802 <app_state_menu_tprobe2_calib>:
     802:	0e 94 b0 11 	call	0x2360	; 0x2360 <srd_clear>
     806:	0e 94 c4 0c 	call	0x1988	; 0x1988 <mr_tprobe_calib_menu_nc>
     80a:	0e 94 a7 11 	call	0x234e	; 0x234e <srd_display>
     80e:	80 91 37 01 	lds	r24, 0x0137	; 0x800137 <app_state+0x18>
     812:	80 ff       	sbrs	r24, 0
     814:	09 c0       	rjmp	.+18     	; 0x828 <app_state_menu_tprobe2_calib+0x26>
     816:	83 e0       	ldi	r24, 0x03	; 3
     818:	80 93 3d 01 	sts	0x013D, r24	; 0x80013d <app_state+0x1e>
     81c:	80 eb       	ldi	r24, 0xB0	; 176
     81e:	95 e0       	ldi	r25, 0x05	; 5
     820:	90 93 3c 01 	sts	0x013C, r25	; 0x80013c <app_state+0x1d>
     824:	80 93 3b 01 	sts	0x013B, r24	; 0x80013b <app_state+0x1c>
     828:	80 e0       	ldi	r24, 0x00	; 0
     82a:	08 95       	ret

0000082c <app_state_menu_tprobe3_calib>:
     82c:	0e 94 b0 11 	call	0x2360	; 0x2360 <srd_clear>
     830:	0e 94 c4 0c 	call	0x1988	; 0x1988 <mr_tprobe_calib_menu_nc>
     834:	0e 94 a7 11 	call	0x234e	; 0x234e <srd_display>
     838:	80 91 37 01 	lds	r24, 0x0137	; 0x800137 <app_state+0x18>
     83c:	80 ff       	sbrs	r24, 0
     83e:	09 c0       	rjmp	.+18     	; 0x852 <app_state_menu_tprobe3_calib+0x26>
     840:	84 e0       	ldi	r24, 0x04	; 4
     842:	80 93 3d 01 	sts	0x013D, r24	; 0x80013d <app_state+0x1e>
     846:	80 eb       	ldi	r24, 0xB0	; 176
     848:	95 e0       	ldi	r25, 0x05	; 5
     84a:	90 93 3c 01 	sts	0x013C, r25	; 0x80013c <app_state+0x1d>
     84e:	80 93 3b 01 	sts	0x013B, r24	; 0x80013b <app_state+0x1c>
     852:	80 e0       	ldi	r24, 0x00	; 0
     854:	08 95       	ret

00000856 <app_control>:
     856:	cf 92       	push	r12
     858:	df 92       	push	r13
     85a:	ef 92       	push	r14
     85c:	ff 92       	push	r15
     85e:	0f 93       	push	r16
     860:	1f 93       	push	r17
     862:	cf 93       	push	r28
     864:	8a e5       	ldi	r24, 0x5A	; 90
     866:	91 e0       	ldi	r25, 0x01	; 1
     868:	0e 94 ed 13 	call	0x27da	; 0x27da <tsens_measure_probe0_temp>
     86c:	60 93 5e 01 	sts	0x015E, r22	; 0x80015e <app_state+0x3f>
     870:	70 93 5f 01 	sts	0x015F, r23	; 0x80015f <app_state+0x40>
     874:	80 93 60 01 	sts	0x0160, r24	; 0x800160 <app_state+0x41>
     878:	90 93 61 01 	sts	0x0161, r25	; 0x800161 <app_state+0x42>
     87c:	c0 91 5a 01 	lds	r28, 0x015A	; 0x80015a <app_state+0x3b>
     880:	c1 11       	cpse	r28, r1
     882:	87 c0       	rjmp	.+270    	; 0x992 <app_control+0x13c>
     884:	80 91 3b 01 	lds	r24, 0x013B	; 0x80013b <app_state+0x1c>
     888:	90 91 3c 01 	lds	r25, 0x013C	; 0x80013c <app_state+0x1d>
     88c:	87 5c       	subi	r24, 0xC7	; 199
     88e:	93 40       	sbci	r25, 0x03	; 3
     890:	89 f0       	breq	.+34     	; 0x8b4 <app_control+0x5e>
     892:	8a e5       	ldi	r24, 0x5A	; 90
     894:	91 e0       	ldi	r25, 0x01	; 1
     896:	0e 94 a4 14 	call	0x2948	; 0x2948 <tsens_measure_probe1_temp>
     89a:	60 93 66 01 	sts	0x0166, r22	; 0x800166 <app_state+0x47>
     89e:	70 93 67 01 	sts	0x0167, r23	; 0x800167 <app_state+0x48>
     8a2:	80 93 68 01 	sts	0x0168, r24	; 0x800168 <app_state+0x49>
     8a6:	90 93 69 01 	sts	0x0169, r25	; 0x800169 <app_state+0x4a>
     8aa:	c0 91 5a 01 	lds	r28, 0x015A	; 0x80015a <app_state+0x3b>
     8ae:	cc 23       	and	r28, r28
     8b0:	91 f0       	breq	.+36     	; 0x8d6 <app_control+0x80>
     8b2:	6f c0       	rjmp	.+222    	; 0x992 <app_control+0x13c>
     8b4:	8a e5       	ldi	r24, 0x5A	; 90
     8b6:	91 e0       	ldi	r25, 0x01	; 1
     8b8:	0e 94 a4 13 	call	0x2748	; 0x2748 <tsens_measure0_resistance>
     8bc:	60 93 62 01 	sts	0x0162, r22	; 0x800162 <app_state+0x43>
     8c0:	70 93 63 01 	sts	0x0163, r23	; 0x800163 <app_state+0x44>
     8c4:	80 93 64 01 	sts	0x0164, r24	; 0x800164 <app_state+0x45>
     8c8:	90 93 65 01 	sts	0x0165, r25	; 0x800165 <app_state+0x46>
     8cc:	c0 91 5a 01 	lds	r28, 0x015A	; 0x80015a <app_state+0x3b>
     8d0:	cc 23       	and	r28, r28
     8d2:	f9 f2       	breq	.-66     	; 0x892 <app_control+0x3c>
     8d4:	5e c0       	rjmp	.+188    	; 0x992 <app_control+0x13c>
     8d6:	80 91 3b 01 	lds	r24, 0x013B	; 0x80013b <app_state+0x1c>
     8da:	90 91 3c 01 	lds	r25, 0x013C	; 0x80013c <app_state+0x1d>
     8de:	84 5e       	subi	r24, 0xE4	; 228
     8e0:	93 40       	sbci	r25, 0x03	; 3
     8e2:	29 f0       	breq	.+10     	; 0x8ee <app_control+0x98>
     8e4:	80 91 5c 01 	lds	r24, 0x015C	; 0x80015c <app_state+0x3d>
     8e8:	81 11       	cpse	r24, r1
     8ea:	13 c0       	rjmp	.+38     	; 0x912 <app_control+0xbc>
     8ec:	52 c0       	rjmp	.+164    	; 0x992 <app_control+0x13c>
     8ee:	8a e5       	ldi	r24, 0x5A	; 90
     8f0:	91 e0       	ldi	r25, 0x01	; 1
     8f2:	0e 94 5b 14 	call	0x28b6	; 0x28b6 <tsens_measure1_resistance>
     8f6:	60 93 6a 01 	sts	0x016A, r22	; 0x80016a <app_state+0x4b>
     8fa:	70 93 6b 01 	sts	0x016B, r23	; 0x80016b <app_state+0x4c>
     8fe:	80 93 6c 01 	sts	0x016C, r24	; 0x80016c <app_state+0x4d>
     902:	90 93 6d 01 	sts	0x016D, r25	; 0x80016d <app_state+0x4e>
     906:	80 91 5a 01 	lds	r24, 0x015A	; 0x80015a <app_state+0x3b>
     90a:	88 23       	and	r24, r24
     90c:	59 f3       	breq	.-42     	; 0x8e4 <app_control+0x8e>
     90e:	c8 2f       	mov	r28, r24
     910:	40 c0       	rjmp	.+128    	; 0x992 <app_control+0x13c>
     912:	80 91 33 01 	lds	r24, 0x0133	; 0x800133 <app_state+0x14>
     916:	88 23       	and	r24, r24
     918:	59 f0       	breq	.+22     	; 0x930 <app_control+0xda>
     91a:	81 30       	cpi	r24, 0x01	; 1
     91c:	c9 f5       	brne	.+114    	; 0x990 <app_control+0x13a>
     91e:	40 91 66 01 	lds	r20, 0x0166	; 0x800166 <app_state+0x47>
     922:	50 91 67 01 	lds	r21, 0x0167	; 0x800167 <app_state+0x48>
     926:	60 91 68 01 	lds	r22, 0x0168	; 0x800168 <app_state+0x49>
     92a:	70 91 69 01 	lds	r23, 0x0169	; 0x800169 <app_state+0x4a>
     92e:	08 c0       	rjmp	.+16     	; 0x940 <app_control+0xea>
     930:	40 91 5e 01 	lds	r20, 0x015E	; 0x80015e <app_state+0x3f>
     934:	50 91 5f 01 	lds	r21, 0x015F	; 0x80015f <app_state+0x40>
     938:	60 91 60 01 	lds	r22, 0x0160	; 0x800160 <app_state+0x41>
     93c:	70 91 61 01 	lds	r23, 0x0161	; 0x800161 <app_state+0x42>
     940:	00 91 1f 01 	lds	r16, 0x011F	; 0x80011f <app_state>
     944:	10 91 20 01 	lds	r17, 0x0120	; 0x800120 <app_state+0x1>
     948:	20 91 21 01 	lds	r18, 0x0121	; 0x800121 <app_state+0x2>
     94c:	30 91 22 01 	lds	r19, 0x0122	; 0x800122 <app_state+0x3>
     950:	8e e3       	ldi	r24, 0x3E	; 62
     952:	91 e0       	ldi	r25, 0x01	; 1
     954:	0e 94 08 0e 	call	0x1c10	; 0x1c10 <pid_step>
     958:	6b 01       	movw	r12, r22
     95a:	7c 01       	movw	r14, r24
     95c:	20 e0       	ldi	r18, 0x00	; 0
     95e:	30 e0       	ldi	r19, 0x00	; 0
     960:	48 ec       	ldi	r20, 0xC8	; 200
     962:	52 e4       	ldi	r21, 0x42	; 66
     964:	60 91 5e 01 	lds	r22, 0x015E	; 0x80015e <app_state+0x3f>
     968:	70 91 5f 01 	lds	r23, 0x015F	; 0x80015f <app_state+0x40>
     96c:	80 91 60 01 	lds	r24, 0x0160	; 0x800160 <app_state+0x41>
     970:	90 91 61 01 	lds	r25, 0x0161	; 0x800161 <app_state+0x42>
     974:	0e 94 05 17 	call	0x2e0a	; 0x2e0a <__gesf2>
     978:	18 16       	cp	r1, r24
     97a:	14 f4       	brge	.+4      	; 0x980 <app_control+0x12a>
     97c:	80 e0       	ldi	r24, 0x00	; 0
     97e:	05 c0       	rjmp	.+10     	; 0x98a <app_control+0x134>
     980:	c7 01       	movw	r24, r14
     982:	b6 01       	movw	r22, r12
     984:	0e 94 14 16 	call	0x2c28	; 0x2c28 <__fixunssfsi>
     988:	86 2f       	mov	r24, r22
     98a:	0e 94 60 0a 	call	0x14c0	; 0x14c0 <heater_set_duty_cycle>
     98e:	01 c0       	rjmp	.+2      	; 0x992 <app_control+0x13c>
     990:	c4 e0       	ldi	r28, 0x04	; 4
     992:	8c 2f       	mov	r24, r28
     994:	cf 91       	pop	r28
     996:	1f 91       	pop	r17
     998:	0f 91       	pop	r16
     99a:	ff 90       	pop	r15
     99c:	ef 90       	pop	r14
     99e:	df 90       	pop	r13
     9a0:	cf 90       	pop	r12
     9a2:	08 95       	ret

000009a4 <app_state_menu_heater>:
     9a4:	80 91 35 01 	lds	r24, 0x0135	; 0x800135 <app_state+0x16>
     9a8:	90 91 36 01 	lds	r25, 0x0136	; 0x800136 <app_state+0x17>
     9ac:	18 16       	cp	r1, r24
     9ae:	19 06       	cpc	r1, r25
     9b0:	2c f4       	brge	.+10     	; 0x9bc <app_state_menu_heater+0x18>
     9b2:	80 91 3d 01 	lds	r24, 0x013D	; 0x80013d <app_state+0x1e>
     9b6:	65 e0       	ldi	r22, 0x05	; 5
     9b8:	8f 5f       	subi	r24, 0xFF	; 255
     9ba:	06 c0       	rjmp	.+12     	; 0x9c8 <app_state_menu_heater+0x24>
     9bc:	89 2b       	or	r24, r25
     9be:	59 f0       	breq	.+22     	; 0x9d6 <app_state_menu_heater+0x32>
     9c0:	80 91 3d 01 	lds	r24, 0x013D	; 0x80013d <app_state+0x1e>
     9c4:	65 e0       	ldi	r22, 0x05	; 5
     9c6:	81 50       	subi	r24, 0x01	; 1
     9c8:	0e 94 3b 0d 	call	0x1a76	; 0x1a76 <imin8>
     9cc:	60 e0       	ldi	r22, 0x00	; 0
     9ce:	0e 94 30 0d 	call	0x1a60	; 0x1a60 <imax8>
     9d2:	80 93 3d 01 	sts	0x013D, r24	; 0x80013d <app_state+0x1e>
     9d6:	0e 94 b0 11 	call	0x2360	; 0x2360 <srd_clear>
     9da:	80 91 3d 01 	lds	r24, 0x013D	; 0x80013d <app_state+0x1e>
     9de:	0e 94 29 0b 	call	0x1652	; 0x1652 <mr_heater_menu>
     9e2:	0e 94 a7 11 	call	0x234e	; 0x234e <srd_display>
     9e6:	80 91 37 01 	lds	r24, 0x0137	; 0x800137 <app_state+0x18>
     9ea:	80 ff       	sbrs	r24, 0
     9ec:	32 c0       	rjmp	.+100    	; 0xa52 <app_state_menu_heater+0xae>
     9ee:	80 91 3d 01 	lds	r24, 0x013D	; 0x80013d <app_state+0x1e>
     9f2:	82 30       	cpi	r24, 0x02	; 2
     9f4:	d1 f0       	breq	.+52     	; 0xa2a <app_state_menu_heater+0x86>
     9f6:	4c f4       	brge	.+18     	; 0xa0a <app_state_menu_heater+0x66>
     9f8:	88 23       	and	r24, r24
     9fa:	89 f0       	breq	.+34     	; 0xa1e <app_state_menu_heater+0x7a>
     9fc:	81 30       	cpi	r24, 0x01	; 1
     9fe:	49 f5       	brne	.+82     	; 0xa52 <app_state_menu_heater+0xae>
     a00:	10 92 3d 01 	sts	0x013D, r1	; 0x80013d <app_state+0x1e>
     a04:	8b ee       	ldi	r24, 0xEB	; 235
     a06:	90 e0       	ldi	r25, 0x00	; 0
     a08:	20 c0       	rjmp	.+64     	; 0xa4a <app_state_menu_heater+0xa6>
     a0a:	84 30       	cpi	r24, 0x04	; 4
     a0c:	d1 f0       	breq	.+52     	; 0xa42 <app_state_menu_heater+0x9e>
     a0e:	94 f0       	brlt	.+36     	; 0xa34 <app_state_menu_heater+0x90>
     a10:	85 30       	cpi	r24, 0x05	; 5
     a12:	f9 f4       	brne	.+62     	; 0xa52 <app_state_menu_heater+0xae>
     a14:	10 92 3d 01 	sts	0x013D, r1	; 0x80013d <app_state+0x1e>
     a18:	87 e3       	ldi	r24, 0x37	; 55
     a1a:	93 e0       	ldi	r25, 0x03	; 3
     a1c:	16 c0       	rjmp	.+44     	; 0xa4a <app_state_menu_heater+0xa6>
     a1e:	81 e0       	ldi	r24, 0x01	; 1
     a20:	80 93 3d 01 	sts	0x013D, r24	; 0x80013d <app_state+0x1e>
     a24:	86 eb       	ldi	r24, 0xB6	; 182
     a26:	97 e0       	ldi	r25, 0x07	; 7
     a28:	10 c0       	rjmp	.+32     	; 0xa4a <app_state_menu_heater+0xa6>
     a2a:	10 92 3d 01 	sts	0x013D, r1	; 0x80013d <app_state+0x1e>
     a2e:	8a e1       	ldi	r24, 0x1A	; 26
     a30:	91 e0       	ldi	r25, 0x01	; 1
     a32:	0b c0       	rjmp	.+22     	; 0xa4a <app_state_menu_heater+0xa6>
     a34:	80 91 33 01 	lds	r24, 0x0133	; 0x800133 <app_state+0x14>
     a38:	80 93 3d 01 	sts	0x013D, r24	; 0x80013d <app_state+0x1e>
     a3c:	87 e6       	ldi	r24, 0x67	; 103
     a3e:	91 e0       	ldi	r25, 0x01	; 1
     a40:	04 c0       	rjmp	.+8      	; 0xa4a <app_state_menu_heater+0xa6>
     a42:	10 92 3d 01 	sts	0x013D, r1	; 0x80013d <app_state+0x1e>
     a46:	8b e2       	ldi	r24, 0x2B	; 43
     a48:	95 e0       	ldi	r25, 0x05	; 5
     a4a:	90 93 3c 01 	sts	0x013C, r25	; 0x80013c <app_state+0x1d>
     a4e:	80 93 3b 01 	sts	0x013B, r24	; 0x80013b <app_state+0x1c>
     a52:	80 e0       	ldi	r24, 0x00	; 0
     a54:	08 95       	ret

00000a56 <app_state_menu_heater_pid>:
     a56:	80 91 35 01 	lds	r24, 0x0135	; 0x800135 <app_state+0x16>
     a5a:	90 91 36 01 	lds	r25, 0x0136	; 0x800136 <app_state+0x17>
     a5e:	18 16       	cp	r1, r24
     a60:	19 06       	cpc	r1, r25
     a62:	2c f4       	brge	.+10     	; 0xa6e <app_state_menu_heater_pid+0x18>
     a64:	80 91 3d 01 	lds	r24, 0x013D	; 0x80013d <app_state+0x1e>
     a68:	63 e0       	ldi	r22, 0x03	; 3
     a6a:	8f 5f       	subi	r24, 0xFF	; 255
     a6c:	06 c0       	rjmp	.+12     	; 0xa7a <app_state_menu_heater_pid+0x24>
     a6e:	89 2b       	or	r24, r25
     a70:	59 f0       	breq	.+22     	; 0xa88 <app_state_menu_heater_pid+0x32>
     a72:	80 91 3d 01 	lds	r24, 0x013D	; 0x80013d <app_state+0x1e>
     a76:	63 e0       	ldi	r22, 0x03	; 3
     a78:	81 50       	subi	r24, 0x01	; 1
     a7a:	0e 94 3b 0d 	call	0x1a76	; 0x1a76 <imin8>
     a7e:	60 e0       	ldi	r22, 0x00	; 0
     a80:	0e 94 30 0d 	call	0x1a60	; 0x1a60 <imax8>
     a84:	80 93 3d 01 	sts	0x013D, r24	; 0x80013d <app_state+0x1e>
     a88:	0e 94 b0 11 	call	0x2360	; 0x2360 <srd_clear>
     a8c:	80 91 3d 01 	lds	r24, 0x013D	; 0x80013d <app_state+0x1e>
     a90:	0e 94 d3 0b 	call	0x17a6	; 0x17a6 <mr_heater_menu_pid>
     a94:	0e 94 a7 11 	call	0x234e	; 0x234e <srd_display>
     a98:	80 91 37 01 	lds	r24, 0x0137	; 0x800137 <app_state+0x18>
     a9c:	80 ff       	sbrs	r24, 0
     a9e:	23 c0       	rjmp	.+70     	; 0xae6 <app_state_menu_heater_pid+0x90>
     aa0:	80 91 3d 01 	lds	r24, 0x013D	; 0x80013d <app_state+0x1e>
     aa4:	81 30       	cpi	r24, 0x01	; 1
     aa6:	91 f0       	breq	.+36     	; 0xacc <app_state_menu_heater_pid+0x76>
     aa8:	44 f4       	brge	.+16     	; 0xaba <app_state_menu_heater_pid+0x64>
     aaa:	81 11       	cpse	r24, r1
     aac:	1c c0       	rjmp	.+56     	; 0xae6 <app_state_menu_heater_pid+0x90>
     aae:	84 e0       	ldi	r24, 0x04	; 4
     ab0:	80 93 3d 01 	sts	0x013D, r24	; 0x80013d <app_state+0x1e>
     ab4:	82 ed       	ldi	r24, 0xD2	; 210
     ab6:	94 e0       	ldi	r25, 0x04	; 4
     ab8:	12 c0       	rjmp	.+36     	; 0xade <app_state_menu_heater_pid+0x88>
     aba:	82 30       	cpi	r24, 0x02	; 2
     abc:	61 f0       	breq	.+24     	; 0xad6 <app_state_menu_heater_pid+0x80>
     abe:	83 30       	cpi	r24, 0x03	; 3
     ac0:	91 f4       	brne	.+36     	; 0xae6 <app_state_menu_heater_pid+0x90>
     ac2:	10 92 3d 01 	sts	0x013D, r1	; 0x80013d <app_state+0x1e>
     ac6:	82 eb       	ldi	r24, 0xB2	; 178
     ac8:	92 e0       	ldi	r25, 0x02	; 2
     aca:	09 c0       	rjmp	.+18     	; 0xade <app_state_menu_heater_pid+0x88>
     acc:	10 92 3d 01 	sts	0x013D, r1	; 0x80013d <app_state+0x1e>
     ad0:	88 ea       	ldi	r24, 0xA8	; 168
     ad2:	91 e0       	ldi	r25, 0x01	; 1
     ad4:	04 c0       	rjmp	.+8      	; 0xade <app_state_menu_heater_pid+0x88>
     ad6:	10 92 3d 01 	sts	0x013D, r1	; 0x80013d <app_state+0x1e>
     ada:	8d e2       	ldi	r24, 0x2D	; 45
     adc:	92 e0       	ldi	r25, 0x02	; 2
     ade:	90 93 3c 01 	sts	0x013C, r25	; 0x80013c <app_state+0x1d>
     ae2:	80 93 3b 01 	sts	0x013B, r24	; 0x80013b <app_state+0x1c>
     ae6:	80 e0       	ldi	r24, 0x00	; 0
     ae8:	08 95       	ret

00000aea <app_state_menu_stirrer>:
     aea:	80 91 35 01 	lds	r24, 0x0135	; 0x800135 <app_state+0x16>
     aee:	90 91 36 01 	lds	r25, 0x0136	; 0x800136 <app_state+0x17>
     af2:	18 16       	cp	r1, r24
     af4:	19 06       	cpc	r1, r25
     af6:	2c f4       	brge	.+10     	; 0xb02 <app_state_menu_stirrer+0x18>
     af8:	80 91 3d 01 	lds	r24, 0x013D	; 0x80013d <app_state+0x1e>
     afc:	61 e0       	ldi	r22, 0x01	; 1
     afe:	8f 5f       	subi	r24, 0xFF	; 255
     b00:	06 c0       	rjmp	.+12     	; 0xb0e <app_state_menu_stirrer+0x24>
     b02:	89 2b       	or	r24, r25
     b04:	59 f0       	breq	.+22     	; 0xb1c <app_state_menu_stirrer+0x32>
     b06:	80 91 3d 01 	lds	r24, 0x013D	; 0x80013d <app_state+0x1e>
     b0a:	61 e0       	ldi	r22, 0x01	; 1
     b0c:	81 50       	subi	r24, 0x01	; 1
     b0e:	0e 94 3b 0d 	call	0x1a76	; 0x1a76 <imin8>
     b12:	60 e0       	ldi	r22, 0x00	; 0
     b14:	0e 94 30 0d 	call	0x1a60	; 0x1a60 <imax8>
     b18:	80 93 3d 01 	sts	0x013D, r24	; 0x80013d <app_state+0x1e>
     b1c:	0e 94 b0 11 	call	0x2360	; 0x2360 <srd_clear>
     b20:	80 91 3d 01 	lds	r24, 0x013D	; 0x80013d <app_state+0x1e>
     b24:	0e 94 89 0b 	call	0x1712	; 0x1712 <mr_stirrer_menu>
     b28:	0e 94 a7 11 	call	0x234e	; 0x234e <srd_display>
     b2c:	80 91 37 01 	lds	r24, 0x0137	; 0x800137 <app_state+0x18>
     b30:	80 ff       	sbrs	r24, 0
     b32:	14 c0       	rjmp	.+40     	; 0xb5c <app_state_menu_stirrer+0x72>
     b34:	80 91 3d 01 	lds	r24, 0x013D	; 0x80013d <app_state+0x1e>
     b38:	88 23       	and	r24, r24
     b3a:	39 f0       	breq	.+14     	; 0xb4a <app_state_menu_stirrer+0x60>
     b3c:	81 30       	cpi	r24, 0x01	; 1
     b3e:	71 f4       	brne	.+28     	; 0xb5c <app_state_menu_stirrer+0x72>
     b40:	10 92 3d 01 	sts	0x013D, r1	; 0x80013d <app_state+0x1e>
     b44:	85 e8       	ldi	r24, 0x85	; 133
     b46:	93 e0       	ldi	r25, 0x03	; 3
     b48:	05 c0       	rjmp	.+10     	; 0xb54 <app_state_menu_stirrer+0x6a>
     b4a:	82 e0       	ldi	r24, 0x02	; 2
     b4c:	80 93 3d 01 	sts	0x013D, r24	; 0x80013d <app_state+0x1e>
     b50:	86 eb       	ldi	r24, 0xB6	; 182
     b52:	97 e0       	ldi	r25, 0x07	; 7
     b54:	90 93 3c 01 	sts	0x013C, r25	; 0x80013c <app_state+0x1d>
     b58:	80 93 3b 01 	sts	0x013B, r24	; 0x80013b <app_state+0x1c>
     b5c:	80 e0       	ldi	r24, 0x00	; 0
     b5e:	08 95       	ret

00000b60 <app_state_menu_tprobe>:
     b60:	80 91 35 01 	lds	r24, 0x0135	; 0x800135 <app_state+0x16>
     b64:	90 91 36 01 	lds	r25, 0x0136	; 0x800136 <app_state+0x17>
     b68:	18 16       	cp	r1, r24
     b6a:	19 06       	cpc	r1, r25
     b6c:	2c f4       	brge	.+10     	; 0xb78 <app_state_menu_tprobe+0x18>
     b6e:	80 91 3d 01 	lds	r24, 0x013D	; 0x80013d <app_state+0x1e>
     b72:	64 e0       	ldi	r22, 0x04	; 4
     b74:	8f 5f       	subi	r24, 0xFF	; 255
     b76:	06 c0       	rjmp	.+12     	; 0xb84 <app_state_menu_tprobe+0x24>
     b78:	89 2b       	or	r24, r25
     b7a:	59 f0       	breq	.+22     	; 0xb92 <app_state_menu_tprobe+0x32>
     b7c:	80 91 3d 01 	lds	r24, 0x013D	; 0x80013d <app_state+0x1e>
     b80:	64 e0       	ldi	r22, 0x04	; 4
     b82:	81 50       	subi	r24, 0x01	; 1
     b84:	0e 94 3b 0d 	call	0x1a76	; 0x1a76 <imin8>
     b88:	60 e0       	ldi	r22, 0x00	; 0
     b8a:	0e 94 30 0d 	call	0x1a60	; 0x1a60 <imax8>
     b8e:	80 93 3d 01 	sts	0x013D, r24	; 0x80013d <app_state+0x1e>
     b92:	0e 94 b0 11 	call	0x2360	; 0x2360 <srd_clear>
     b96:	80 91 3d 01 	lds	r24, 0x013D	; 0x80013d <app_state+0x1e>
     b9a:	0e 94 88 0c 	call	0x1910	; 0x1910 <mr_tprobe_menu>
     b9e:	0e 94 a7 11 	call	0x234e	; 0x234e <srd_display>
     ba2:	80 91 37 01 	lds	r24, 0x0137	; 0x800137 <app_state+0x18>
     ba6:	80 ff       	sbrs	r24, 0
     ba8:	2a c0       	rjmp	.+84     	; 0xbfe <app_state_menu_tprobe+0x9e>
     baa:	80 91 3d 01 	lds	r24, 0x013D	; 0x80013d <app_state+0x1e>
     bae:	82 30       	cpi	r24, 0x02	; 2
     bb0:	c9 f0       	breq	.+50     	; 0xbe4 <app_state_menu_tprobe+0x84>
     bb2:	4c f4       	brge	.+18     	; 0xbc6 <app_state_menu_tprobe+0x66>
     bb4:	88 23       	and	r24, r24
     bb6:	81 f0       	breq	.+32     	; 0xbd8 <app_state_menu_tprobe+0x78>
     bb8:	81 30       	cpi	r24, 0x01	; 1
     bba:	09 f5       	brne	.+66     	; 0xbfe <app_state_menu_tprobe+0x9e>
     bbc:	10 92 3d 01 	sts	0x013D, r1	; 0x80013d <app_state+0x1e>
     bc0:	87 ec       	ldi	r24, 0xC7	; 199
     bc2:	93 e0       	ldi	r25, 0x03	; 3
     bc4:	18 c0       	rjmp	.+48     	; 0xbf6 <app_state_menu_tprobe+0x96>
     bc6:	83 30       	cpi	r24, 0x03	; 3
     bc8:	91 f0       	breq	.+36     	; 0xbee <app_state_menu_tprobe+0x8e>
     bca:	84 30       	cpi	r24, 0x04	; 4
     bcc:	c1 f4       	brne	.+48     	; 0xbfe <app_state_menu_tprobe+0x9e>
     bce:	10 92 3d 01 	sts	0x013D, r1	; 0x80013d <app_state+0x1e>
     bd2:	86 e1       	ldi	r24, 0x16	; 22
     bd4:	94 e0       	ldi	r25, 0x04	; 4
     bd6:	0f c0       	rjmp	.+30     	; 0xbf6 <app_state_menu_tprobe+0x96>
     bd8:	83 e0       	ldi	r24, 0x03	; 3
     bda:	80 93 3d 01 	sts	0x013D, r24	; 0x80013d <app_state+0x1e>
     bde:	86 eb       	ldi	r24, 0xB6	; 182
     be0:	97 e0       	ldi	r25, 0x07	; 7
     be2:	09 c0       	rjmp	.+18     	; 0xbf6 <app_state_menu_tprobe+0x96>
     be4:	10 92 3d 01 	sts	0x013D, r1	; 0x80013d <app_state+0x1e>
     be8:	84 ee       	ldi	r24, 0xE4	; 228
     bea:	93 e0       	ldi	r25, 0x03	; 3
     bec:	04 c0       	rjmp	.+8      	; 0xbf6 <app_state_menu_tprobe+0x96>
     bee:	10 92 3d 01 	sts	0x013D, r1	; 0x80013d <app_state+0x1e>
     bf2:	81 e0       	ldi	r24, 0x01	; 1
     bf4:	94 e0       	ldi	r25, 0x04	; 4
     bf6:	90 93 3c 01 	sts	0x013C, r25	; 0x80013c <app_state+0x1d>
     bfa:	80 93 3b 01 	sts	0x013B, r24	; 0x80013b <app_state+0x1c>
     bfe:	80 e0       	ldi	r24, 0x00	; 0
     c00:	08 95       	ret

00000c02 <app_clear_input>:
     c02:	ef e1       	ldi	r30, 0x1F	; 31
     c04:	f1 e0       	ldi	r31, 0x01	; 1
     c06:	17 8a       	std	Z+23, r1	; 0x17
     c08:	16 8a       	std	Z+22, r1	; 0x16
     c0a:	10 8e       	std	Z+24, r1	; 0x18
     c0c:	11 8e       	std	Z+25, r1	; 0x19
     c0e:	12 8e       	std	Z+26, r1	; 0x1a
     c10:	13 8e       	std	Z+27, r1	; 0x1b
     c12:	08 95       	ret

00000c14 <app_user_main>:
     c14:	cf 93       	push	r28
     c16:	df 93       	push	r29
     c18:	0e 94 01 06 	call	0xc02	; 0xc02 <app_clear_input>
     c1c:	0e 94 2d 0f 	call	0x1e5a	; 0x1e5a <rotenc_get_inc>
     c20:	cf e1       	ldi	r28, 0x1F	; 31
     c22:	d1 e0       	ldi	r29, 0x01	; 1
     c24:	9f 8b       	std	Y+23, r25	; 0x17
     c26:	8e 8b       	std	Y+22, r24	; 0x16
     c28:	80 e0       	ldi	r24, 0x00	; 0
     c2a:	0e 94 ba 12 	call	0x2574	; 0x2574 <switch_get_state>
     c2e:	9b 8d       	ldd	r25, Y+27	; 0x1b
     c30:	89 2b       	or	r24, r25
     c32:	8b 8f       	std	Y+27, r24	; 0x1b
     c34:	80 e0       	ldi	r24, 0x00	; 0
     c36:	0e 94 60 12 	call	0x24c0	; 0x24c0 <switch_press>
     c3a:	98 8d       	ldd	r25, Y+24	; 0x18
     c3c:	89 2b       	or	r24, r25
     c3e:	88 8f       	std	Y+24, r24	; 0x18
     c40:	80 e0       	ldi	r24, 0x00	; 0
     c42:	0e 94 9c 12 	call	0x2538	; 0x2538 <switch_longpress>
     c46:	99 8d       	ldd	r25, Y+25	; 0x19
     c48:	89 2b       	or	r24, r25
     c4a:	89 8f       	std	Y+25, r24	; 0x19
     c4c:	80 e0       	ldi	r24, 0x00	; 0
     c4e:	0e 94 7e 12 	call	0x24fc	; 0x24fc <switch_release>
     c52:	9a 8d       	ldd	r25, Y+26	; 0x1a
     c54:	89 2b       	or	r24, r25
     c56:	8a 8f       	std	Y+26, r24	; 0x1a
     c58:	ec 8d       	ldd	r30, Y+28	; 0x1c
     c5a:	fd 8d       	ldd	r31, Y+29	; 0x1d
     c5c:	df 91       	pop	r29
     c5e:	cf 91       	pop	r28
     c60:	09 94       	ijmp

00000c62 <app_error_display>:
     c62:	80 91 5a 01 	lds	r24, 0x015A	; 0x80015a <app_state+0x3b>
     c66:	82 30       	cpi	r24, 0x02	; 2
     c68:	49 f0       	breq	.+18     	; 0xc7c <app_error_display+0x1a>
     c6a:	18 f4       	brcc	.+6      	; 0xc72 <app_error_display+0x10>
     c6c:	81 30       	cpi	r24, 0x01	; 1
     c6e:	31 f0       	breq	.+12     	; 0xc7c <app_error_display+0x1a>
     c70:	08 95       	ret
     c72:	83 30       	cpi	r24, 0x03	; 3
     c74:	19 f0       	breq	.+6      	; 0xc7c <app_error_display+0x1a>
     c76:	84 30       	cpi	r24, 0x04	; 4
     c78:	09 f0       	breq	.+2      	; 0xc7c <app_error_display+0x1a>
     c7a:	08 95       	ret
     c7c:	0e 94 b0 11 	call	0x2360	; 0x2360 <srd_clear>
     c80:	80 91 5a 01 	lds	r24, 0x015A	; 0x80015a <app_state+0x3b>
     c84:	0e 94 cc 0c 	call	0x1998	; 0x1998 <mr_thermistor_error>
     c88:	0c 94 a7 11 	jmp	0x234e	; 0x234e <srd_display>

00000c8c <app_load_default_settings>:
     c8c:	ef e1       	ldi	r30, 0x1F	; 31
     c8e:	f1 e0       	ldi	r31, 0x01	; 1
     c90:	80 e0       	ldi	r24, 0x00	; 0
     c92:	90 e0       	ldi	r25, 0x00	; 0
     c94:	a8 ec       	ldi	r26, 0xC8	; 200
     c96:	b1 e4       	ldi	r27, 0x41	; 65
     c98:	80 83       	st	Z, r24
     c9a:	91 83       	std	Z+1, r25	; 0x01
     c9c:	a2 83       	std	Z+2, r26	; 0x02
     c9e:	b3 83       	std	Z+3, r27	; 0x03
     ca0:	80 e0       	ldi	r24, 0x00	; 0
     ca2:	90 e0       	ldi	r25, 0x00	; 0
     ca4:	a0 e8       	ldi	r26, 0x80	; 128
     ca6:	bf e3       	ldi	r27, 0x3F	; 63
     ca8:	84 83       	std	Z+4, r24	; 0x04
     caa:	95 83       	std	Z+5, r25	; 0x05
     cac:	a6 83       	std	Z+6, r26	; 0x06
     cae:	b7 83       	std	Z+7, r27	; 0x07
     cb0:	10 86       	std	Z+8, r1	; 0x08
     cb2:	11 86       	std	Z+9, r1	; 0x09
     cb4:	12 86       	std	Z+10, r1	; 0x0a
     cb6:	13 86       	std	Z+11, r1	; 0x0b
     cb8:	14 86       	std	Z+12, r1	; 0x0c
     cba:	15 86       	std	Z+13, r1	; 0x0d
     cbc:	16 86       	std	Z+14, r1	; 0x0e
     cbe:	17 86       	std	Z+15, r1	; 0x0f
     cc0:	10 8a       	std	Z+16, r1	; 0x10
     cc2:	11 8a       	std	Z+17, r1	; 0x11
     cc4:	12 8a       	std	Z+18, r1	; 0x12
     cc6:	13 8a       	std	Z+19, r1	; 0x13
     cc8:	14 8a       	std	Z+20, r1	; 0x14
     cca:	08 95       	ret

00000ccc <app_store_settings_to_eeprom>:
     ccc:	cf 93       	push	r28
     cce:	df 93       	push	r29
     cd0:	cd b7       	in	r28, 0x3d	; 61
     cd2:	de b7       	in	r29, 0x3e	; 62
     cd4:	66 97       	sbiw	r28, 0x16	; 22
     cd6:	0f b6       	in	r0, 0x3f	; 63
     cd8:	f8 94       	cli
     cda:	de bf       	out	0x3e, r29	; 62
     cdc:	0f be       	out	0x3f, r0	; 63
     cde:	cd bf       	out	0x3d, r28	; 61
     ce0:	8a e2       	ldi	r24, 0x2A	; 42
     ce2:	89 83       	std	Y+1, r24	; 0x01
     ce4:	85 e1       	ldi	r24, 0x15	; 21
     ce6:	ef e1       	ldi	r30, 0x1F	; 31
     ce8:	f1 e0       	ldi	r31, 0x01	; 1
     cea:	de 01       	movw	r26, r28
     cec:	12 96       	adiw	r26, 0x02	; 2
     cee:	01 90       	ld	r0, Z+
     cf0:	0d 92       	st	X+, r0
     cf2:	8a 95       	dec	r24
     cf4:	e1 f7       	brne	.-8      	; 0xcee <app_store_settings_to_eeprom+0x22>
     cf6:	46 e1       	ldi	r20, 0x16	; 22
     cf8:	50 e0       	ldi	r21, 0x00	; 0
     cfa:	60 e0       	ldi	r22, 0x00	; 0
     cfc:	70 e0       	ldi	r23, 0x00	; 0
     cfe:	ce 01       	movw	r24, r28
     d00:	01 96       	adiw	r24, 0x01	; 1
     d02:	0e 94 8c 18 	call	0x3118	; 0x3118 <eeprom_update_block>
     d06:	66 96       	adiw	r28, 0x16	; 22
     d08:	0f b6       	in	r0, 0x3f	; 63
     d0a:	f8 94       	cli
     d0c:	de bf       	out	0x3e, r29	; 62
     d0e:	0f be       	out	0x3f, r0	; 63
     d10:	cd bf       	out	0x3d, r28	; 61
     d12:	df 91       	pop	r29
     d14:	cf 91       	pop	r28
     d16:	08 95       	ret

00000d18 <app_load_settings_from_eeprom>:
     d18:	cf 93       	push	r28
     d1a:	df 93       	push	r29
     d1c:	cd b7       	in	r28, 0x3d	; 61
     d1e:	de b7       	in	r29, 0x3e	; 62
     d20:	66 97       	sbiw	r28, 0x16	; 22
     d22:	0f b6       	in	r0, 0x3f	; 63
     d24:	f8 94       	cli
     d26:	de bf       	out	0x3e, r29	; 62
     d28:	0f be       	out	0x3f, r0	; 63
     d2a:	cd bf       	out	0x3d, r28	; 61
     d2c:	46 e1       	ldi	r20, 0x16	; 22
     d2e:	50 e0       	ldi	r21, 0x00	; 0
     d30:	60 e0       	ldi	r22, 0x00	; 0
     d32:	70 e0       	ldi	r23, 0x00	; 0
     d34:	ce 01       	movw	r24, r28
     d36:	01 96       	adiw	r24, 0x01	; 1
     d38:	0e 94 7c 18 	call	0x30f8	; 0x30f8 <eeprom_read_block>
     d3c:	89 81       	ldd	r24, Y+1	; 0x01
     d3e:	8a 32       	cpi	r24, 0x2A	; 42
     d40:	29 f0       	breq	.+10     	; 0xd4c <app_load_settings_from_eeprom+0x34>
     d42:	0e 94 46 06 	call	0xc8c	; 0xc8c <app_load_default_settings>
     d46:	0e 94 66 06 	call	0xccc	; 0xccc <app_store_settings_to_eeprom>
     d4a:	09 c0       	rjmp	.+18     	; 0xd5e <app_load_settings_from_eeprom+0x46>
     d4c:	85 e1       	ldi	r24, 0x15	; 21
     d4e:	fe 01       	movw	r30, r28
     d50:	32 96       	adiw	r30, 0x02	; 2
     d52:	af e1       	ldi	r26, 0x1F	; 31
     d54:	b1 e0       	ldi	r27, 0x01	; 1
     d56:	01 90       	ld	r0, Z+
     d58:	0d 92       	st	X+, r0
     d5a:	8a 95       	dec	r24
     d5c:	e1 f7       	brne	.-8      	; 0xd56 <app_load_settings_from_eeprom+0x3e>
     d5e:	66 96       	adiw	r28, 0x16	; 22
     d60:	0f b6       	in	r0, 0x3f	; 63
     d62:	f8 94       	cli
     d64:	de bf       	out	0x3e, r29	; 62
     d66:	0f be       	out	0x3f, r0	; 63
     d68:	cd bf       	out	0x3d, r28	; 61
     d6a:	df 91       	pop	r29
     d6c:	cf 91       	pop	r28
     d6e:	08 95       	ret

00000d70 <app_run>:
     d70:	8f 92       	push	r8
     d72:	9f 92       	push	r9
     d74:	af 92       	push	r10
     d76:	bf 92       	push	r11
     d78:	cf 92       	push	r12
     d7a:	df 92       	push	r13
     d7c:	ef 92       	push	r14
     d7e:	ff 92       	push	r15
     d80:	0f 93       	push	r16
     d82:	1f 93       	push	r17
     d84:	cf 93       	push	r28
     d86:	10 92 5a 01 	sts	0x015A, r1	; 0x80015a <app_state+0x3b>
     d8a:	0e 94 08 08 	call	0x1010	; 0x1010 <appt_init>
     d8e:	0e 94 b9 11 	call	0x2372	; 0x2372 <srd_init>
     d92:	0e 94 33 12 	call	0x2466	; 0x2466 <switch_init>
     d96:	0e 94 0e 0f 	call	0x1e1c	; 0x1e1c <rotenc_init>
     d9a:	0e 94 8c 06 	call	0xd18	; 0xd18 <app_load_settings_from_eeprom>
     d9e:	10 92 5b 01 	sts	0x015B, r1	; 0x80015b <app_state+0x3c>
     da2:	10 92 5c 01 	sts	0x015C, r1	; 0x80015c <app_state+0x3d>
     da6:	10 92 5d 01 	sts	0x015D, r1	; 0x80015d <app_state+0x3e>
     daa:	0e 94 bf 11 	call	0x237e	; 0x237e <stirrer_init>
     dae:	0e 94 24 12 	call	0x2448	; 0x2448 <stirrer_off>
     db2:	0e 94 3c 0a 	call	0x1478	; 0x1478 <heater_init>
     db6:	0e 94 80 0a 	call	0x1500	; 0x1500 <heater_off>
     dba:	c0 90 2b 01 	lds	r12, 0x012B	; 0x80012b <app_state+0xc>
     dbe:	d0 90 2c 01 	lds	r13, 0x012C	; 0x80012c <app_state+0xd>
     dc2:	e0 90 2d 01 	lds	r14, 0x012D	; 0x80012d <app_state+0xe>
     dc6:	f0 90 2e 01 	lds	r15, 0x012E	; 0x80012e <app_state+0xf>
     dca:	00 91 27 01 	lds	r16, 0x0127	; 0x800127 <app_state+0x8>
     dce:	10 91 28 01 	lds	r17, 0x0128	; 0x800128 <app_state+0x9>
     dd2:	20 91 29 01 	lds	r18, 0x0129	; 0x800129 <app_state+0xa>
     dd6:	30 91 2a 01 	lds	r19, 0x012A	; 0x80012a <app_state+0xb>
     dda:	40 91 23 01 	lds	r20, 0x0123	; 0x800123 <app_state+0x4>
     dde:	50 91 24 01 	lds	r21, 0x0124	; 0x800124 <app_state+0x5>
     de2:	60 91 25 01 	lds	r22, 0x0125	; 0x800125 <app_state+0x6>
     de6:	70 91 26 01 	lds	r23, 0x0126	; 0x800126 <app_state+0x7>
     dea:	82 e4       	ldi	r24, 0x42	; 66
     dec:	8f 93       	push	r24
     dee:	88 ec       	ldi	r24, 0xC8	; 200
     df0:	8f 93       	push	r24
     df2:	1f 92       	push	r1
     df4:	1f 92       	push	r1
     df6:	81 2c       	mov	r8, r1
     df8:	91 2c       	mov	r9, r1
     dfa:	54 01       	movw	r10, r8
     dfc:	8e e3       	ldi	r24, 0x3E	; 62
     dfe:	91 e0       	ldi	r25, 0x01	; 1
     e00:	0e 94 90 0d 	call	0x1b20	; 0x1b20 <pid_init>
     e04:	0e 94 4a 13 	call	0x2694	; 0x2694 <tsens_init>
     e08:	20 e0       	ldi	r18, 0x00	; 0
     e0a:	4b e2       	ldi	r20, 0x2B	; 43
     e0c:	54 e0       	ldi	r21, 0x04	; 4
     e0e:	6a e0       	ldi	r22, 0x0A	; 10
     e10:	77 ed       	ldi	r23, 0xD7	; 215
     e12:	83 ea       	ldi	r24, 0xA3	; 163
     e14:	9c e3       	ldi	r25, 0x3C	; 60
     e16:	0e 94 cb 09 	call	0x1396	; 0x1396 <appt_set_callback>
     e1a:	21 e0       	ldi	r18, 0x01	; 1
     e1c:	4a e0       	ldi	r20, 0x0A	; 10
     e1e:	56 e0       	ldi	r21, 0x06	; 6
     e20:	6a e0       	ldi	r22, 0x0A	; 10
     e22:	77 ed       	ldi	r23, 0xD7	; 215
     e24:	83 e2       	ldi	r24, 0x23	; 35
     e26:	9d e3       	ldi	r25, 0x3D	; 61
     e28:	0e 94 cb 09 	call	0x1396	; 0x1396 <appt_set_callback>
     e2c:	22 e0       	ldi	r18, 0x02	; 2
     e2e:	4a e9       	ldi	r20, 0x9A	; 154
     e30:	50 e0       	ldi	r21, 0x00	; 0
     e32:	6f e6       	ldi	r22, 0x6F	; 111
     e34:	72 e1       	ldi	r23, 0x12	; 18
     e36:	83 e8       	ldi	r24, 0x83	; 131
     e38:	9a e3       	ldi	r25, 0x3A	; 58
     e3a:	0e 94 cb 09 	call	0x1396	; 0x1396 <appt_set_callback>
     e3e:	23 e0       	ldi	r18, 0x03	; 3
     e40:	4e e9       	ldi	r20, 0x9E	; 158
     e42:	50 e0       	ldi	r21, 0x00	; 0
     e44:	6a e0       	ldi	r22, 0x0A	; 10
     e46:	77 ed       	ldi	r23, 0xD7	; 215
     e48:	83 ea       	ldi	r24, 0xA3	; 163
     e4a:	9b e3       	ldi	r25, 0x3B	; 59
     e4c:	0e 94 cb 09 	call	0x1396	; 0x1396 <appt_set_callback>
     e50:	0e 94 01 06 	call	0xc02	; 0xc02 <app_clear_input>
     e54:	82 ea       	ldi	r24, 0xA2	; 162
     e56:	90 e0       	ldi	r25, 0x00	; 0
     e58:	90 93 3c 01 	sts	0x013C, r25	; 0x80013c <app_state+0x1d>
     e5c:	80 93 3b 01 	sts	0x013B, r24	; 0x80013b <app_state+0x1c>
     e60:	0e 94 6d 13 	call	0x26da	; 0x26da <tsens_start_adc>
     e64:	8a e5       	ldi	r24, 0x5A	; 90
     e66:	91 e0       	ldi	r25, 0x01	; 1
     e68:	0e 94 ed 13 	call	0x27da	; 0x27da <tsens_measure_probe0_temp>
     e6c:	60 93 5e 01 	sts	0x015E, r22	; 0x80015e <app_state+0x3f>
     e70:	70 93 5f 01 	sts	0x015F, r23	; 0x80015f <app_state+0x40>
     e74:	80 93 60 01 	sts	0x0160, r24	; 0x800160 <app_state+0x41>
     e78:	90 93 61 01 	sts	0x0161, r25	; 0x800161 <app_state+0x42>
     e7c:	0f 90       	pop	r0
     e7e:	0f 90       	pop	r0
     e80:	0f 90       	pop	r0
     e82:	0f 90       	pop	r0
     e84:	80 91 5a 01 	lds	r24, 0x015A	; 0x80015a <app_state+0x3b>
     e88:	81 11       	cpse	r24, r1
     e8a:	46 c0       	rjmp	.+140    	; 0xf18 <app_run+0x1a8>
     e8c:	8a e5       	ldi	r24, 0x5A	; 90
     e8e:	91 e0       	ldi	r25, 0x01	; 1
     e90:	0e 94 a4 13 	call	0x2748	; 0x2748 <tsens_measure0_resistance>
     e94:	60 93 62 01 	sts	0x0162, r22	; 0x800162 <app_state+0x43>
     e98:	70 93 63 01 	sts	0x0163, r23	; 0x800163 <app_state+0x44>
     e9c:	80 93 64 01 	sts	0x0164, r24	; 0x800164 <app_state+0x45>
     ea0:	90 93 65 01 	sts	0x0165, r25	; 0x800165 <app_state+0x46>
     ea4:	80 91 5a 01 	lds	r24, 0x015A	; 0x80015a <app_state+0x3b>
     ea8:	81 11       	cpse	r24, r1
     eaa:	36 c0       	rjmp	.+108    	; 0xf18 <app_run+0x1a8>
     eac:	8a e5       	ldi	r24, 0x5A	; 90
     eae:	91 e0       	ldi	r25, 0x01	; 1
     eb0:	0e 94 a4 14 	call	0x2948	; 0x2948 <tsens_measure_probe1_temp>
     eb4:	60 93 66 01 	sts	0x0166, r22	; 0x800166 <app_state+0x47>
     eb8:	70 93 67 01 	sts	0x0167, r23	; 0x800167 <app_state+0x48>
     ebc:	80 93 68 01 	sts	0x0168, r24	; 0x800168 <app_state+0x49>
     ec0:	90 93 69 01 	sts	0x0169, r25	; 0x800169 <app_state+0x4a>
     ec4:	80 91 5a 01 	lds	r24, 0x015A	; 0x80015a <app_state+0x3b>
     ec8:	81 11       	cpse	r24, r1
     eca:	26 c0       	rjmp	.+76     	; 0xf18 <app_run+0x1a8>
     ecc:	8a e5       	ldi	r24, 0x5A	; 90
     ece:	91 e0       	ldi	r25, 0x01	; 1
     ed0:	0e 94 5b 14 	call	0x28b6	; 0x28b6 <tsens_measure1_resistance>
     ed4:	60 93 6a 01 	sts	0x016A, r22	; 0x80016a <app_state+0x4b>
     ed8:	70 93 6b 01 	sts	0x016B, r23	; 0x80016b <app_state+0x4c>
     edc:	80 93 6c 01 	sts	0x016C, r24	; 0x80016c <app_state+0x4d>
     ee0:	90 93 6d 01 	sts	0x016D, r25	; 0x80016d <app_state+0x4e>
     ee4:	80 91 5a 01 	lds	r24, 0x015A	; 0x80015a <app_state+0x3b>
     ee8:	81 11       	cpse	r24, r1
     eea:	16 c0       	rjmp	.+44     	; 0xf18 <app_run+0x1a8>
     eec:	0e 94 55 08 	call	0x10aa	; 0x10aa <appt_start>
     ef0:	10 92 34 01 	sts	0x0134, r1	; 0x800134 <app_state+0x15>
     ef4:	c1 e0       	ldi	r28, 0x01	; 1
     ef6:	80 91 34 01 	lds	r24, 0x0134	; 0x800134 <app_state+0x15>
     efa:	81 11       	cpse	r24, r1
     efc:	09 c0       	rjmp	.+18     	; 0xf10 <app_run+0x1a0>
     efe:	0e 94 c4 08 	call	0x1188	; 0x1188 <appt_update>
     f02:	80 93 5a 01 	sts	0x015A, r24	; 0x80015a <app_state+0x3b>
     f06:	88 23       	and	r24, r24
     f08:	b1 f3       	breq	.-20     	; 0xef6 <app_run+0x186>
     f0a:	c0 93 34 01 	sts	0x0134, r28	; 0x800134 <app_state+0x15>
     f0e:	f3 cf       	rjmp	.-26     	; 0xef6 <app_run+0x186>
     f10:	c0 91 5a 01 	lds	r28, 0x015A	; 0x80015a <app_state+0x3b>
     f14:	cc 23       	and	r28, r28
     f16:	79 f0       	breq	.+30     	; 0xf36 <app_run+0x1c6>
     f18:	0e 94 4f 0a 	call	0x149e	; 0x149e <heater_shutdown>
     f1c:	0e 94 de 11 	call	0x23bc	; 0x23bc <stirrer_shutdown>
     f20:	0e 94 5c 13 	call	0x26b8	; 0x26b8 <tsens_shutdown>
     f24:	0e 94 25 0f 	call	0x1e4a	; 0x1e4a <rotenc_shutdown>
     f28:	0e 94 4b 12 	call	0x2496	; 0x2496 <switch_shutdown>
     f2c:	0e 94 31 06 	call	0xc62	; 0xc62 <app_error_display>
     f30:	c0 91 5a 01 	lds	r28, 0x015A	; 0x80015a <app_state+0x3b>
     f34:	0e c0       	rjmp	.+28     	; 0xf52 <app_run+0x1e2>
     f36:	0e 94 7e 08 	call	0x10fc	; 0x10fc <appt_shutdown>
     f3a:	0e 94 de 11 	call	0x23bc	; 0x23bc <stirrer_shutdown>
     f3e:	0e 94 4f 0a 	call	0x149e	; 0x149e <heater_shutdown>
     f42:	0e 94 5c 13 	call	0x26b8	; 0x26b8 <tsens_shutdown>
     f46:	0e 94 25 0f 	call	0x1e4a	; 0x1e4a <rotenc_shutdown>
     f4a:	0e 94 4b 12 	call	0x2496	; 0x2496 <switch_shutdown>
     f4e:	0e 94 30 10 	call	0x2060	; 0x2060 <srd_shutdown>
     f52:	8c 2f       	mov	r24, r28
     f54:	cf 91       	pop	r28
     f56:	1f 91       	pop	r17
     f58:	0f 91       	pop	r16
     f5a:	ff 90       	pop	r15
     f5c:	ef 90       	pop	r14
     f5e:	df 90       	pop	r13
     f60:	cf 90       	pop	r12
     f62:	bf 90       	pop	r11
     f64:	af 90       	pop	r10
     f66:	9f 90       	pop	r9
     f68:	8f 90       	pop	r8
     f6a:	08 95       	ret

00000f6c <app_state_menu_main>:
     f6c:	80 91 35 01 	lds	r24, 0x0135	; 0x800135 <app_state+0x16>
     f70:	90 91 36 01 	lds	r25, 0x0136	; 0x800136 <app_state+0x17>
     f74:	18 16       	cp	r1, r24
     f76:	19 06       	cpc	r1, r25
     f78:	2c f4       	brge	.+10     	; 0xf84 <app_state_menu_main+0x18>
     f7a:	80 91 3d 01 	lds	r24, 0x013D	; 0x80013d <app_state+0x1e>
     f7e:	65 e0       	ldi	r22, 0x05	; 5
     f80:	8f 5f       	subi	r24, 0xFF	; 255
     f82:	06 c0       	rjmp	.+12     	; 0xf90 <app_state_menu_main+0x24>
     f84:	89 2b       	or	r24, r25
     f86:	59 f0       	breq	.+22     	; 0xf9e <app_state_menu_main+0x32>
     f88:	80 91 3d 01 	lds	r24, 0x013D	; 0x80013d <app_state+0x1e>
     f8c:	65 e0       	ldi	r22, 0x05	; 5
     f8e:	81 50       	subi	r24, 0x01	; 1
     f90:	0e 94 3b 0d 	call	0x1a76	; 0x1a76 <imin8>
     f94:	60 e0       	ldi	r22, 0x00	; 0
     f96:	0e 94 30 0d 	call	0x1a60	; 0x1a60 <imax8>
     f9a:	80 93 3d 01 	sts	0x013D, r24	; 0x80013d <app_state+0x1e>
     f9e:	0e 94 b0 11 	call	0x2360	; 0x2360 <srd_clear>
     fa2:	80 91 3d 01 	lds	r24, 0x013D	; 0x80013d <app_state+0x1e>
     fa6:	0e 94 b9 0a 	call	0x1572	; 0x1572 <mr_main_menu>
     faa:	0e 94 a7 11 	call	0x234e	; 0x234e <srd_display>
     fae:	80 91 37 01 	lds	r24, 0x0137	; 0x800137 <app_state+0x18>
     fb2:	80 ff       	sbrs	r24, 0
     fb4:	2b c0       	rjmp	.+86     	; 0x100c <app_state_menu_main+0xa0>
     fb6:	80 91 3d 01 	lds	r24, 0x013D	; 0x80013d <app_state+0x1e>
     fba:	82 30       	cpi	r24, 0x02	; 2
     fbc:	b9 f0       	breq	.+46     	; 0xfec <app_state_menu_main+0x80>
     fbe:	4c f4       	brge	.+18     	; 0xfd2 <app_state_menu_main+0x66>
     fc0:	88 23       	and	r24, r24
     fc2:	79 f0       	breq	.+30     	; 0xfe2 <app_state_menu_main+0x76>
     fc4:	81 30       	cpi	r24, 0x01	; 1
     fc6:	11 f5       	brne	.+68     	; 0x100c <app_state_menu_main+0xa0>
     fc8:	10 92 3d 01 	sts	0x013D, r1	; 0x80013d <app_state+0x1e>
     fcc:	82 ed       	ldi	r24, 0xD2	; 210
     fce:	94 e0       	ldi	r25, 0x04	; 4
     fd0:	16 c0       	rjmp	.+44     	; 0xffe <app_state_menu_main+0x92>
     fd2:	84 30       	cpi	r24, 0x04	; 4
     fd4:	c9 f0       	breq	.+50     	; 0x1008 <app_state_menu_main+0x9c>
     fd6:	7c f0       	brlt	.+30     	; 0xff6 <app_state_menu_main+0x8a>
     fd8:	85 30       	cpi	r24, 0x05	; 5
     fda:	c1 f4       	brne	.+48     	; 0x100c <app_state_menu_main+0xa0>
     fdc:	0e 94 66 06 	call	0xccc	; 0xccc <app_store_settings_to_eeprom>
     fe0:	15 c0       	rjmp	.+42     	; 0x100c <app_state_menu_main+0xa0>
     fe2:	10 92 3d 01 	sts	0x013D, r1	; 0x80013d <app_state+0x1e>
     fe6:	82 ea       	ldi	r24, 0xA2	; 162
     fe8:	90 e0       	ldi	r25, 0x00	; 0
     fea:	09 c0       	rjmp	.+18     	; 0xffe <app_state_menu_main+0x92>
     fec:	10 92 3d 01 	sts	0x013D, r1	; 0x80013d <app_state+0x1e>
     ff0:	85 e7       	ldi	r24, 0x75	; 117
     ff2:	95 e0       	ldi	r25, 0x05	; 5
     ff4:	04 c0       	rjmp	.+8      	; 0xffe <app_state_menu_main+0x92>
     ff6:	10 92 3d 01 	sts	0x013D, r1	; 0x80013d <app_state+0x1e>
     ffa:	80 eb       	ldi	r24, 0xB0	; 176
     ffc:	95 e0       	ldi	r25, 0x05	; 5
     ffe:	90 93 3c 01 	sts	0x013C, r25	; 0x80013c <app_state+0x1d>
    1002:	80 93 3b 01 	sts	0x013B, r24	; 0x80013b <app_state+0x1c>
    1006:	02 c0       	rjmp	.+4      	; 0x100c <app_state_menu_main+0xa0>
    1008:	0e 94 8c 06 	call	0xd18	; 0xd18 <app_load_settings_from_eeprom>
    100c:	80 e0       	ldi	r24, 0x00	; 0
    100e:	08 95       	ret

00001010 <appt_init>:
    1010:	10 92 be 01 	sts	0x01BE, r1	; 0x8001be <appt_cycles>
    1014:	10 92 bf 01 	sts	0x01BF, r1	; 0x8001bf <appt_cycles+0x1>
    1018:	10 92 c0 01 	sts	0x01C0, r1	; 0x8001c0 <appt_cycles+0x2>
    101c:	10 92 c1 01 	sts	0x01C1, r1	; 0x8001c1 <appt_cycles+0x3>
    1020:	10 92 c2 01 	sts	0x01C2, r1	; 0x8001c2 <appt_cycles+0x4>
    1024:	10 92 c3 01 	sts	0x01C3, r1	; 0x8001c3 <appt_cycles+0x5>
    1028:	10 92 c4 01 	sts	0x01C4, r1	; 0x8001c4 <appt_cycles+0x6>
    102c:	10 92 c5 01 	sts	0x01C5, r1	; 0x8001c5 <appt_cycles+0x7>
    1030:	10 92 b6 01 	sts	0x01B6, r1	; 0x8001b6 <appt_cycles_old>
    1034:	10 92 b7 01 	sts	0x01B7, r1	; 0x8001b7 <appt_cycles_old+0x1>
    1038:	10 92 b8 01 	sts	0x01B8, r1	; 0x8001b8 <appt_cycles_old+0x2>
    103c:	10 92 b9 01 	sts	0x01B9, r1	; 0x8001b9 <appt_cycles_old+0x3>
    1040:	10 92 ba 01 	sts	0x01BA, r1	; 0x8001ba <appt_cycles_old+0x4>
    1044:	10 92 bb 01 	sts	0x01BB, r1	; 0x8001bb <appt_cycles_old+0x5>
    1048:	10 92 bc 01 	sts	0x01BC, r1	; 0x8001bc <appt_cycles_old+0x6>
    104c:	10 92 bd 01 	sts	0x01BD, r1	; 0x8001bd <appt_cycles_old+0x7>
    1050:	ee e6       	ldi	r30, 0x6E	; 110
    1052:	f1 e0       	ldi	r31, 0x01	; 1
    1054:	10 82       	st	Z, r1
    1056:	11 82       	std	Z+1, r1	; 0x01
    1058:	12 82       	std	Z+2, r1	; 0x02
    105a:	13 82       	std	Z+3, r1	; 0x03
    105c:	14 82       	std	Z+4, r1	; 0x04
    105e:	15 82       	std	Z+5, r1	; 0x05
    1060:	16 82       	std	Z+6, r1	; 0x06
    1062:	17 82       	std	Z+7, r1	; 0x07
    1064:	10 86       	std	Z+8, r1	; 0x08
    1066:	11 86       	std	Z+9, r1	; 0x09
    1068:	12 86       	std	Z+10, r1	; 0x0a
    106a:	13 86       	std	Z+11, r1	; 0x0b
    106c:	14 86       	std	Z+12, r1	; 0x0c
    106e:	15 86       	std	Z+13, r1	; 0x0d
    1070:	16 86       	std	Z+14, r1	; 0x0e
    1072:	17 86       	std	Z+15, r1	; 0x0f
    1074:	11 8a       	std	Z+17, r1	; 0x11
    1076:	10 8a       	std	Z+16, r1	; 0x10
    1078:	72 96       	adiw	r30, 0x12	; 18
    107a:	81 e0       	ldi	r24, 0x01	; 1
    107c:	e6 3b       	cpi	r30, 0xB6	; 182
    107e:	f8 07       	cpc	r31, r24
    1080:	49 f7       	brne	.-46     	; 0x1054 <appt_init+0x44>
    1082:	80 91 6e 00 	lds	r24, 0x006E	; 0x80006e <__TEXT_REGION_LENGTH__+0x7e006e>
    1086:	8c 7f       	andi	r24, 0xFC	; 252
    1088:	80 93 6e 00 	sts	0x006E, r24	; 0x80006e <__TEXT_REGION_LENGTH__+0x7e006e>
    108c:	85 b5       	in	r24, 0x25	; 37
    108e:	88 7f       	andi	r24, 0xF8	; 248
    1090:	85 bd       	out	0x25, r24	; 37
    1092:	84 b5       	in	r24, 0x24	; 36
    1094:	82 60       	ori	r24, 0x02	; 2
    1096:	84 bd       	out	0x24, r24	; 36
    1098:	82 e6       	ldi	r24, 0x62	; 98
    109a:	87 bd       	out	0x27, r24	; 39
    109c:	80 91 6e 00 	lds	r24, 0x006E	; 0x80006e <__TEXT_REGION_LENGTH__+0x7e006e>
    10a0:	82 60       	ori	r24, 0x02	; 2
    10a2:	80 93 6e 00 	sts	0x006E, r24	; 0x80006e <__TEXT_REGION_LENGTH__+0x7e006e>
    10a6:	78 94       	sei
    10a8:	08 95       	ret

000010aa <appt_start>:
    10aa:	10 92 be 01 	sts	0x01BE, r1	; 0x8001be <appt_cycles>
    10ae:	10 92 bf 01 	sts	0x01BF, r1	; 0x8001bf <appt_cycles+0x1>
    10b2:	10 92 c0 01 	sts	0x01C0, r1	; 0x8001c0 <appt_cycles+0x2>
    10b6:	10 92 c1 01 	sts	0x01C1, r1	; 0x8001c1 <appt_cycles+0x3>
    10ba:	10 92 c2 01 	sts	0x01C2, r1	; 0x8001c2 <appt_cycles+0x4>
    10be:	10 92 c3 01 	sts	0x01C3, r1	; 0x8001c3 <appt_cycles+0x5>
    10c2:	10 92 c4 01 	sts	0x01C4, r1	; 0x8001c4 <appt_cycles+0x6>
    10c6:	10 92 c5 01 	sts	0x01C5, r1	; 0x8001c5 <appt_cycles+0x7>
    10ca:	10 92 b6 01 	sts	0x01B6, r1	; 0x8001b6 <appt_cycles_old>
    10ce:	10 92 b7 01 	sts	0x01B7, r1	; 0x8001b7 <appt_cycles_old+0x1>
    10d2:	10 92 b8 01 	sts	0x01B8, r1	; 0x8001b8 <appt_cycles_old+0x2>
    10d6:	10 92 b9 01 	sts	0x01B9, r1	; 0x8001b9 <appt_cycles_old+0x3>
    10da:	10 92 ba 01 	sts	0x01BA, r1	; 0x8001ba <appt_cycles_old+0x4>
    10de:	10 92 bb 01 	sts	0x01BB, r1	; 0x8001bb <appt_cycles_old+0x5>
    10e2:	10 92 bc 01 	sts	0x01BC, r1	; 0x8001bc <appt_cycles_old+0x6>
    10e6:	10 92 bd 01 	sts	0x01BD, r1	; 0x8001bd <appt_cycles_old+0x7>
    10ea:	16 bc       	out	0x26, r1	; 38
    10ec:	85 b5       	in	r24, 0x25	; 37
    10ee:	82 60       	ori	r24, 0x02	; 2
    10f0:	85 bd       	out	0x25, r24	; 37
    10f2:	08 95       	ret

000010f4 <appt_stop>:
    10f4:	85 b5       	in	r24, 0x25	; 37
    10f6:	88 7f       	andi	r24, 0xF8	; 248
    10f8:	85 bd       	out	0x25, r24	; 37
    10fa:	08 95       	ret

000010fc <appt_shutdown>:
    10fc:	0e 94 7a 08 	call	0x10f4	; 0x10f4 <appt_stop>
    1100:	80 91 6e 00 	lds	r24, 0x006E	; 0x80006e <__TEXT_REGION_LENGTH__+0x7e006e>
    1104:	8d 7f       	andi	r24, 0xFD	; 253
    1106:	80 93 6e 00 	sts	0x006E, r24	; 0x80006e <__TEXT_REGION_LENGTH__+0x7e006e>
    110a:	84 b5       	in	r24, 0x24	; 36
    110c:	8d 7b       	andi	r24, 0xBD	; 189
    110e:	84 bd       	out	0x24, r24	; 36
    1110:	16 bc       	out	0x26, r1	; 38
    1112:	17 bc       	out	0x27, r1	; 39
    1114:	10 92 be 01 	sts	0x01BE, r1	; 0x8001be <appt_cycles>
    1118:	10 92 bf 01 	sts	0x01BF, r1	; 0x8001bf <appt_cycles+0x1>
    111c:	10 92 c0 01 	sts	0x01C0, r1	; 0x8001c0 <appt_cycles+0x2>
    1120:	10 92 c1 01 	sts	0x01C1, r1	; 0x8001c1 <appt_cycles+0x3>
    1124:	10 92 c2 01 	sts	0x01C2, r1	; 0x8001c2 <appt_cycles+0x4>
    1128:	10 92 c3 01 	sts	0x01C3, r1	; 0x8001c3 <appt_cycles+0x5>
    112c:	10 92 c4 01 	sts	0x01C4, r1	; 0x8001c4 <appt_cycles+0x6>
    1130:	10 92 c5 01 	sts	0x01C5, r1	; 0x8001c5 <appt_cycles+0x7>
    1134:	10 92 b6 01 	sts	0x01B6, r1	; 0x8001b6 <appt_cycles_old>
    1138:	10 92 b7 01 	sts	0x01B7, r1	; 0x8001b7 <appt_cycles_old+0x1>
    113c:	10 92 b8 01 	sts	0x01B8, r1	; 0x8001b8 <appt_cycles_old+0x2>
    1140:	10 92 b9 01 	sts	0x01B9, r1	; 0x8001b9 <appt_cycles_old+0x3>
    1144:	10 92 ba 01 	sts	0x01BA, r1	; 0x8001ba <appt_cycles_old+0x4>
    1148:	10 92 bb 01 	sts	0x01BB, r1	; 0x8001bb <appt_cycles_old+0x5>
    114c:	10 92 bc 01 	sts	0x01BC, r1	; 0x8001bc <appt_cycles_old+0x6>
    1150:	10 92 bd 01 	sts	0x01BD, r1	; 0x8001bd <appt_cycles_old+0x7>
    1154:	ee e6       	ldi	r30, 0x6E	; 110
    1156:	f1 e0       	ldi	r31, 0x01	; 1
    1158:	10 82       	st	Z, r1
    115a:	11 82       	std	Z+1, r1	; 0x01
    115c:	12 82       	std	Z+2, r1	; 0x02
    115e:	13 82       	std	Z+3, r1	; 0x03
    1160:	14 82       	std	Z+4, r1	; 0x04
    1162:	15 82       	std	Z+5, r1	; 0x05
    1164:	16 82       	std	Z+6, r1	; 0x06
    1166:	17 82       	std	Z+7, r1	; 0x07
    1168:	10 86       	std	Z+8, r1	; 0x08
    116a:	11 86       	std	Z+9, r1	; 0x09
    116c:	12 86       	std	Z+10, r1	; 0x0a
    116e:	13 86       	std	Z+11, r1	; 0x0b
    1170:	14 86       	std	Z+12, r1	; 0x0c
    1172:	15 86       	std	Z+13, r1	; 0x0d
    1174:	16 86       	std	Z+14, r1	; 0x0e
    1176:	17 86       	std	Z+15, r1	; 0x0f
    1178:	11 8a       	std	Z+17, r1	; 0x11
    117a:	10 8a       	std	Z+16, r1	; 0x10
    117c:	72 96       	adiw	r30, 0x12	; 18
    117e:	81 e0       	ldi	r24, 0x01	; 1
    1180:	e6 3b       	cpi	r30, 0xB6	; 182
    1182:	f8 07       	cpc	r31, r24
    1184:	49 f7       	brne	.-46     	; 0x1158 <__stack+0x59>
    1186:	08 95       	ret

00001188 <appt_update>:
    1188:	2f 92       	push	r2
    118a:	3f 92       	push	r3
    118c:	4f 92       	push	r4
    118e:	5f 92       	push	r5
    1190:	6f 92       	push	r6
    1192:	7f 92       	push	r7
    1194:	8f 92       	push	r8
    1196:	9f 92       	push	r9
    1198:	af 92       	push	r10
    119a:	bf 92       	push	r11
    119c:	cf 92       	push	r12
    119e:	df 92       	push	r13
    11a0:	ef 92       	push	r14
    11a2:	ff 92       	push	r15
    11a4:	0f 93       	push	r16
    11a6:	1f 93       	push	r17
    11a8:	cf 93       	push	r28
    11aa:	df 93       	push	r29
    11ac:	cd b7       	in	r28, 0x3d	; 61
    11ae:	de b7       	in	r29, 0x3e	; 62
    11b0:	62 97       	sbiw	r28, 0x12	; 18
    11b2:	0f b6       	in	r0, 0x3f	; 63
    11b4:	f8 94       	cli
    11b6:	de bf       	out	0x3e, r29	; 62
    11b8:	0f be       	out	0x3f, r0	; 63
    11ba:	cd bf       	out	0x3d, r28	; 61
    11bc:	ef b7       	in	r30, 0x3f	; 63
    11be:	f8 94       	cli
    11c0:	20 91 be 01 	lds	r18, 0x01BE	; 0x8001be <appt_cycles>
    11c4:	30 91 bf 01 	lds	r19, 0x01BF	; 0x8001bf <appt_cycles+0x1>
    11c8:	40 91 c0 01 	lds	r20, 0x01C0	; 0x8001c0 <appt_cycles+0x2>
    11cc:	50 91 c1 01 	lds	r21, 0x01C1	; 0x8001c1 <appt_cycles+0x3>
    11d0:	60 91 c2 01 	lds	r22, 0x01C2	; 0x8001c2 <appt_cycles+0x4>
    11d4:	70 91 c3 01 	lds	r23, 0x01C3	; 0x8001c3 <appt_cycles+0x5>
    11d8:	80 91 c4 01 	lds	r24, 0x01C4	; 0x8001c4 <appt_cycles+0x6>
    11dc:	90 91 c5 01 	lds	r25, 0x01C5	; 0x8001c5 <appt_cycles+0x7>
    11e0:	a0 90 b6 01 	lds	r10, 0x01B6	; 0x8001b6 <appt_cycles_old>
    11e4:	b0 90 b7 01 	lds	r11, 0x01B7	; 0x8001b7 <appt_cycles_old+0x1>
    11e8:	c0 90 b8 01 	lds	r12, 0x01B8	; 0x8001b8 <appt_cycles_old+0x2>
    11ec:	d0 90 b9 01 	lds	r13, 0x01B9	; 0x8001b9 <appt_cycles_old+0x3>
    11f0:	e0 90 ba 01 	lds	r14, 0x01BA	; 0x8001ba <appt_cycles_old+0x4>
    11f4:	f0 90 bb 01 	lds	r15, 0x01BB	; 0x8001bb <appt_cycles_old+0x5>
    11f8:	00 91 bc 01 	lds	r16, 0x01BC	; 0x8001bc <appt_cycles_old+0x6>
    11fc:	10 91 bd 01 	lds	r17, 0x01BD	; 0x8001bd <appt_cycles_old+0x7>
    1200:	0e 94 6a 18 	call	0x30d4	; 0x30d4 <__subdi3>
    1204:	2f 83       	std	Y+7, r18	; 0x07
    1206:	38 87       	std	Y+8, r19	; 0x08
    1208:	49 87       	std	Y+9, r20	; 0x09
    120a:	5a 87       	std	Y+10, r21	; 0x0a
    120c:	6b 87       	std	Y+11, r22	; 0x0b
    120e:	7c 87       	std	Y+12, r23	; 0x0c
    1210:	8d 87       	std	Y+13, r24	; 0x0d
    1212:	9e 87       	std	Y+14, r25	; 0x0e
    1214:	70 91 be 01 	lds	r23, 0x01BE	; 0x8001be <appt_cycles>
    1218:	60 91 bf 01 	lds	r22, 0x01BF	; 0x8001bf <appt_cycles+0x1>
    121c:	50 91 c0 01 	lds	r21, 0x01C0	; 0x8001c0 <appt_cycles+0x2>
    1220:	40 91 c1 01 	lds	r20, 0x01C1	; 0x8001c1 <appt_cycles+0x3>
    1224:	30 91 c2 01 	lds	r19, 0x01C2	; 0x8001c2 <appt_cycles+0x4>
    1228:	20 91 c3 01 	lds	r18, 0x01C3	; 0x8001c3 <appt_cycles+0x5>
    122c:	90 91 c4 01 	lds	r25, 0x01C4	; 0x8001c4 <appt_cycles+0x6>
    1230:	80 91 c5 01 	lds	r24, 0x01C5	; 0x8001c5 <appt_cycles+0x7>
    1234:	70 93 b6 01 	sts	0x01B6, r23	; 0x8001b6 <appt_cycles_old>
    1238:	60 93 b7 01 	sts	0x01B7, r22	; 0x8001b7 <appt_cycles_old+0x1>
    123c:	50 93 b8 01 	sts	0x01B8, r21	; 0x8001b8 <appt_cycles_old+0x2>
    1240:	40 93 b9 01 	sts	0x01B9, r20	; 0x8001b9 <appt_cycles_old+0x3>
    1244:	30 93 ba 01 	sts	0x01BA, r19	; 0x8001ba <appt_cycles_old+0x4>
    1248:	20 93 bb 01 	sts	0x01BB, r18	; 0x8001bb <appt_cycles_old+0x5>
    124c:	90 93 bc 01 	sts	0x01BC, r25	; 0x8001bc <appt_cycles_old+0x6>
    1250:	80 93 bd 01 	sts	0x01BD, r24	; 0x8001bd <appt_cycles_old+0x7>
    1254:	ef bf       	out	0x3f, r30	; 63
    1256:	8e e6       	ldi	r24, 0x6E	; 110
    1258:	91 e0       	ldi	r25, 0x01	; 1
    125a:	98 8b       	std	Y+16, r25	; 0x10
    125c:	8f 87       	std	Y+15, r24	; 0x0f
    125e:	ef 85       	ldd	r30, Y+15	; 0x0f
    1260:	f8 89       	ldd	r31, Y+16	; 0x10
    1262:	00 88       	ldd	r0, Z+16	; 0x10
    1264:	f1 89       	ldd	r31, Z+17	; 0x11
    1266:	e0 2d       	mov	r30, r0
    1268:	fe 83       	std	Y+6, r31	; 0x06
    126a:	ed 83       	std	Y+5, r30	; 0x05
    126c:	ef 2b       	or	r30, r31
    126e:	51 f4       	brne	.+20     	; 0x1284 <appt_update+0xfc>
    1270:	8f 85       	ldd	r24, Y+15	; 0x0f
    1272:	98 89       	ldd	r25, Y+16	; 0x10
    1274:	42 96       	adiw	r24, 0x12	; 18
    1276:	98 8b       	std	Y+16, r25	; 0x10
    1278:	8f 87       	std	Y+15, r24	; 0x0f
    127a:	86 5b       	subi	r24, 0xB6	; 182
    127c:	91 40       	sbci	r25, 0x01	; 1
    127e:	79 f7       	brne	.-34     	; 0x125e <appt_update+0xd6>
    1280:	80 e0       	ldi	r24, 0x00	; 0
    1282:	70 c0       	rjmp	.+224    	; 0x1364 <appt_update+0x1dc>
    1284:	2f 81       	ldd	r18, Y+7	; 0x07
    1286:	38 85       	ldd	r19, Y+8	; 0x08
    1288:	49 85       	ldd	r20, Y+9	; 0x09
    128a:	5a 85       	ldd	r21, Y+10	; 0x0a
    128c:	6b 85       	ldd	r22, Y+11	; 0x0b
    128e:	7c 85       	ldd	r23, Y+12	; 0x0c
    1290:	8d 85       	ldd	r24, Y+13	; 0x0d
    1292:	9e 85       	ldd	r25, Y+14	; 0x0e
    1294:	ef 85       	ldd	r30, Y+15	; 0x0f
    1296:	f8 89       	ldd	r31, Y+16	; 0x10
    1298:	a0 84       	ldd	r10, Z+8	; 0x08
    129a:	b1 84       	ldd	r11, Z+9	; 0x09
    129c:	c2 84       	ldd	r12, Z+10	; 0x0a
    129e:	d3 84       	ldd	r13, Z+11	; 0x0b
    12a0:	e4 84       	ldd	r14, Z+12	; 0x0c
    12a2:	f5 84       	ldd	r15, Z+13	; 0x0d
    12a4:	06 85       	ldd	r16, Z+14	; 0x0e
    12a6:	17 85       	ldd	r17, Z+15	; 0x0f
    12a8:	0e 94 55 18 	call	0x30aa	; 0x30aa <__adddi3>
    12ac:	19 01       	movw	r2, r18
    12ae:	2a 01       	movw	r4, r20
    12b0:	3b 01       	movw	r6, r22
    12b2:	4c 01       	movw	r8, r24
    12b4:	20 87       	std	Z+8, r18	; 0x08
    12b6:	31 86       	std	Z+9, r3	; 0x09
    12b8:	42 87       	std	Z+10, r20	; 0x0a
    12ba:	53 86       	std	Z+11, r5	; 0x0b
    12bc:	64 87       	std	Z+12, r22	; 0x0c
    12be:	75 86       	std	Z+13, r7	; 0x0d
    12c0:	86 87       	std	Z+14, r24	; 0x0e
    12c2:	97 86       	std	Z+15, r9	; 0x0f
    12c4:	b0 81       	ld	r27, Z
    12c6:	a1 81       	ldd	r26, Z+1	; 0x01
    12c8:	f2 81       	ldd	r31, Z+2	; 0x02
    12ca:	f9 8b       	std	Y+17, r31	; 0x11
    12cc:	ef 85       	ldd	r30, Y+15	; 0x0f
    12ce:	f8 89       	ldd	r31, Y+16	; 0x10
    12d0:	f3 81       	ldd	r31, Z+3	; 0x03
    12d2:	fa 8b       	std	Y+18, r31	; 0x12
    12d4:	ef 85       	ldd	r30, Y+15	; 0x0f
    12d6:	f8 89       	ldd	r31, Y+16	; 0x10
    12d8:	f4 81       	ldd	r31, Z+4	; 0x04
    12da:	f9 83       	std	Y+1, r31	; 0x01
    12dc:	ef 85       	ldd	r30, Y+15	; 0x0f
    12de:	f8 89       	ldd	r31, Y+16	; 0x10
    12e0:	f5 81       	ldd	r31, Z+5	; 0x05
    12e2:	fa 83       	std	Y+2, r31	; 0x02
    12e4:	ef 85       	ldd	r30, Y+15	; 0x0f
    12e6:	f8 89       	ldd	r31, Y+16	; 0x10
    12e8:	f6 81       	ldd	r31, Z+6	; 0x06
    12ea:	fb 83       	std	Y+3, r31	; 0x03
    12ec:	ef 85       	ldd	r30, Y+15	; 0x0f
    12ee:	f8 89       	ldd	r31, Y+16	; 0x10
    12f0:	f7 81       	ldd	r31, Z+7	; 0x07
    12f2:	fc 83       	std	Y+4, r31	; 0x04
    12f4:	ab 2e       	mov	r10, r27
    12f6:	ba 2e       	mov	r11, r26
    12f8:	c9 88       	ldd	r12, Y+17	; 0x11
    12fa:	da 88       	ldd	r13, Y+18	; 0x12
    12fc:	e9 80       	ldd	r14, Y+1	; 0x01
    12fe:	fa 80       	ldd	r15, Y+2	; 0x02
    1300:	0b 81       	ldd	r16, Y+3	; 0x03
    1302:	1f 2f       	mov	r17, r31
    1304:	0e 94 73 18 	call	0x30e6	; 0x30e6 <__cmpdi2>
    1308:	08 f4       	brcc	.+2      	; 0x130c <appt_update+0x184>
    130a:	b2 cf       	rjmp	.-156    	; 0x1270 <appt_update+0xe8>
    130c:	0e 94 6a 18 	call	0x30d4	; 0x30d4 <__subdi3>
    1310:	19 01       	movw	r2, r18
    1312:	2a 01       	movw	r4, r20
    1314:	3b 01       	movw	r6, r22
    1316:	4c 01       	movw	r8, r24
    1318:	2b 2f       	mov	r18, r27
    131a:	3a 2f       	mov	r19, r26
    131c:	a6 01       	movw	r20, r12
    131e:	b7 01       	movw	r22, r14
    1320:	c8 01       	movw	r24, r16
    1322:	51 01       	movw	r10, r2
    1324:	62 01       	movw	r12, r4
    1326:	73 01       	movw	r14, r6
    1328:	84 01       	movw	r16, r8
    132a:	ef 85       	ldd	r30, Y+15	; 0x0f
    132c:	f8 89       	ldd	r31, Y+16	; 0x10
    132e:	0e 94 73 18 	call	0x30e6	; 0x30e6 <__cmpdi2>
    1332:	51 f0       	breq	.+20     	; 0x1348 <appt_update+0x1c0>
    1334:	48 f0       	brcs	.+18     	; 0x1348 <appt_update+0x1c0>
    1336:	20 86       	std	Z+8, r2	; 0x08
    1338:	31 86       	std	Z+9, r3	; 0x09
    133a:	42 86       	std	Z+10, r4	; 0x0a
    133c:	53 86       	std	Z+11, r5	; 0x0b
    133e:	64 86       	std	Z+12, r6	; 0x0c
    1340:	75 86       	std	Z+13, r7	; 0x0d
    1342:	86 86       	std	Z+14, r8	; 0x0e
    1344:	97 86       	std	Z+15, r9	; 0x0f
    1346:	08 c0       	rjmp	.+16     	; 0x1358 <appt_update+0x1d0>
    1348:	10 86       	std	Z+8, r1	; 0x08
    134a:	11 86       	std	Z+9, r1	; 0x09
    134c:	12 86       	std	Z+10, r1	; 0x0a
    134e:	13 86       	std	Z+11, r1	; 0x0b
    1350:	14 86       	std	Z+12, r1	; 0x0c
    1352:	15 86       	std	Z+13, r1	; 0x0d
    1354:	16 86       	std	Z+14, r1	; 0x0e
    1356:	17 86       	std	Z+15, r1	; 0x0f
    1358:	ed 81       	ldd	r30, Y+5	; 0x05
    135a:	fe 81       	ldd	r31, Y+6	; 0x06
    135c:	09 95       	icall
    135e:	88 23       	and	r24, r24
    1360:	09 f4       	brne	.+2      	; 0x1364 <appt_update+0x1dc>
    1362:	86 cf       	rjmp	.-244    	; 0x1270 <appt_update+0xe8>
    1364:	62 96       	adiw	r28, 0x12	; 18
    1366:	0f b6       	in	r0, 0x3f	; 63
    1368:	f8 94       	cli
    136a:	de bf       	out	0x3e, r29	; 62
    136c:	0f be       	out	0x3f, r0	; 63
    136e:	cd bf       	out	0x3d, r28	; 61
    1370:	df 91       	pop	r29
    1372:	cf 91       	pop	r28
    1374:	1f 91       	pop	r17
    1376:	0f 91       	pop	r16
    1378:	ff 90       	pop	r15
    137a:	ef 90       	pop	r14
    137c:	df 90       	pop	r13
    137e:	cf 90       	pop	r12
    1380:	bf 90       	pop	r11
    1382:	af 90       	pop	r10
    1384:	9f 90       	pop	r9
    1386:	8f 90       	pop	r8
    1388:	7f 90       	pop	r7
    138a:	6f 90       	pop	r6
    138c:	5f 90       	pop	r5
    138e:	4f 90       	pop	r4
    1390:	3f 90       	pop	r3
    1392:	2f 90       	pop	r2
    1394:	08 95       	ret

00001396 <appt_set_callback>:
    1396:	0f 93       	push	r16
    1398:	1f 93       	push	r17
    139a:	cf 93       	push	r28
    139c:	df 93       	push	r29
    139e:	8a 01       	movw	r16, r20
    13a0:	32 e1       	ldi	r19, 0x12	; 18
    13a2:	23 9f       	mul	r18, r19
    13a4:	e0 01       	movw	r28, r0
    13a6:	11 24       	eor	r1, r1
    13a8:	c2 59       	subi	r28, 0x92	; 146
    13aa:	de 4f       	sbci	r29, 0xFE	; 254
    13ac:	28 e3       	ldi	r18, 0x38	; 56
    13ae:	3e e9       	ldi	r19, 0x9E	; 158
    13b0:	4f ec       	ldi	r20, 0xCF	; 207
    13b2:	58 e3       	ldi	r21, 0x38	; 56
    13b4:	0e 94 5f 15 	call	0x2abe	; 0x2abe <__divsf3>
    13b8:	20 e0       	ldi	r18, 0x00	; 0
    13ba:	30 e0       	ldi	r19, 0x00	; 0
    13bc:	40 e0       	ldi	r20, 0x00	; 0
    13be:	5f e3       	ldi	r21, 0x3F	; 63
    13c0:	0e 94 ee 14 	call	0x29dc	; 0x29dc <__addsf3>
    13c4:	0e 94 d6 15 	call	0x2bac	; 0x2bac <__fixunssfdi>
    13c8:	28 83       	st	Y, r18
    13ca:	39 83       	std	Y+1, r19	; 0x01
    13cc:	4a 83       	std	Y+2, r20	; 0x02
    13ce:	5b 83       	std	Y+3, r21	; 0x03
    13d0:	6c 83       	std	Y+4, r22	; 0x04
    13d2:	7d 83       	std	Y+5, r23	; 0x05
    13d4:	8e 83       	std	Y+6, r24	; 0x06
    13d6:	9f 83       	std	Y+7, r25	; 0x07
    13d8:	fe 01       	movw	r30, r28
    13da:	38 96       	adiw	r30, 0x08	; 8
    13dc:	18 86       	std	Y+8, r1	; 0x08
    13de:	11 82       	std	Z+1, r1	; 0x01
    13e0:	12 82       	std	Z+2, r1	; 0x02
    13e2:	13 82       	std	Z+3, r1	; 0x03
    13e4:	14 82       	std	Z+4, r1	; 0x04
    13e6:	15 82       	std	Z+5, r1	; 0x05
    13e8:	16 82       	std	Z+6, r1	; 0x06
    13ea:	17 82       	std	Z+7, r1	; 0x07
    13ec:	19 8b       	std	Y+17, r17	; 0x11
    13ee:	08 8b       	std	Y+16, r16	; 0x10
    13f0:	df 91       	pop	r29
    13f2:	cf 91       	pop	r28
    13f4:	1f 91       	pop	r17
    13f6:	0f 91       	pop	r16
    13f8:	08 95       	ret

000013fa <__vector_16>:
    13fa:	1f 92       	push	r1
    13fc:	0f 92       	push	r0
    13fe:	0f b6       	in	r0, 0x3f	; 63
    1400:	0f 92       	push	r0
    1402:	11 24       	eor	r1, r1
    1404:	2f 93       	push	r18
    1406:	3f 93       	push	r19
    1408:	4f 93       	push	r20
    140a:	5f 93       	push	r21
    140c:	6f 93       	push	r22
    140e:	7f 93       	push	r23
    1410:	8f 93       	push	r24
    1412:	9f 93       	push	r25
    1414:	af 93       	push	r26
    1416:	20 91 be 01 	lds	r18, 0x01BE	; 0x8001be <appt_cycles>
    141a:	30 91 bf 01 	lds	r19, 0x01BF	; 0x8001bf <appt_cycles+0x1>
    141e:	40 91 c0 01 	lds	r20, 0x01C0	; 0x8001c0 <appt_cycles+0x2>
    1422:	50 91 c1 01 	lds	r21, 0x01C1	; 0x8001c1 <appt_cycles+0x3>
    1426:	60 91 c2 01 	lds	r22, 0x01C2	; 0x8001c2 <appt_cycles+0x4>
    142a:	70 91 c3 01 	lds	r23, 0x01C3	; 0x8001c3 <appt_cycles+0x5>
    142e:	80 91 c4 01 	lds	r24, 0x01C4	; 0x8001c4 <appt_cycles+0x6>
    1432:	90 91 c5 01 	lds	r25, 0x01C5	; 0x8001c5 <appt_cycles+0x7>
    1436:	a1 e0       	ldi	r26, 0x01	; 1
    1438:	0e 94 5e 18 	call	0x30bc	; 0x30bc <__adddi3_s8>
    143c:	20 93 be 01 	sts	0x01BE, r18	; 0x8001be <appt_cycles>
    1440:	30 93 bf 01 	sts	0x01BF, r19	; 0x8001bf <appt_cycles+0x1>
    1444:	40 93 c0 01 	sts	0x01C0, r20	; 0x8001c0 <appt_cycles+0x2>
    1448:	50 93 c1 01 	sts	0x01C1, r21	; 0x8001c1 <appt_cycles+0x3>
    144c:	60 93 c2 01 	sts	0x01C2, r22	; 0x8001c2 <appt_cycles+0x4>
    1450:	70 93 c3 01 	sts	0x01C3, r23	; 0x8001c3 <appt_cycles+0x5>
    1454:	80 93 c4 01 	sts	0x01C4, r24	; 0x8001c4 <appt_cycles+0x6>
    1458:	90 93 c5 01 	sts	0x01C5, r25	; 0x8001c5 <appt_cycles+0x7>
    145c:	af 91       	pop	r26
    145e:	9f 91       	pop	r25
    1460:	8f 91       	pop	r24
    1462:	7f 91       	pop	r23
    1464:	6f 91       	pop	r22
    1466:	5f 91       	pop	r21
    1468:	4f 91       	pop	r20
    146a:	3f 91       	pop	r19
    146c:	2f 91       	pop	r18
    146e:	0f 90       	pop	r0
    1470:	0f be       	out	0x3f, r0	; 63
    1472:	0f 90       	pop	r0
    1474:	1f 90       	pop	r1
    1476:	18 95       	reti

00001478 <heater_init>:
    1478:	10 92 70 00 	sts	0x0070, r1	; 0x800070 <__TEXT_REGION_LENGTH__+0x7e0070>
    147c:	e1 eb       	ldi	r30, 0xB1	; 177
    147e:	f0 e0       	ldi	r31, 0x00	; 0
    1480:	80 81       	ld	r24, Z
    1482:	89 7f       	andi	r24, 0xF9	; 249
    1484:	80 83       	st	Z, r24
    1486:	e0 eb       	ldi	r30, 0xB0	; 176
    1488:	f0 e0       	ldi	r31, 0x00	; 0
    148a:	80 81       	ld	r24, Z
    148c:	81 60       	ori	r24, 0x01	; 1
    148e:	80 83       	st	Z, r24
    1490:	10 92 b3 00 	sts	0x00B3, r1	; 0x8000b3 <__TEXT_REGION_LENGTH__+0x7e00b3>
    1494:	10 92 b2 00 	sts	0x00B2, r1	; 0x8000b2 <__TEXT_REGION_LENGTH__+0x7e00b2>
    1498:	57 9a       	sbi	0x0a, 7	; 10
    149a:	5f 98       	cbi	0x0b, 7	; 11
    149c:	08 95       	ret

0000149e <heater_shutdown>:
    149e:	e1 eb       	ldi	r30, 0xB1	; 177
    14a0:	f0 e0       	ldi	r31, 0x00	; 0
    14a2:	80 81       	ld	r24, Z
    14a4:	89 7f       	andi	r24, 0xF9	; 249
    14a6:	80 83       	st	Z, r24
    14a8:	10 92 b2 00 	sts	0x00B2, r1	; 0x8000b2 <__TEXT_REGION_LENGTH__+0x7e00b2>
    14ac:	10 92 b3 00 	sts	0x00B3, r1	; 0x8000b3 <__TEXT_REGION_LENGTH__+0x7e00b3>
    14b0:	e0 eb       	ldi	r30, 0xB0	; 176
    14b2:	f0 e0       	ldi	r31, 0x00	; 0
    14b4:	80 81       	ld	r24, Z
    14b6:	8e 77       	andi	r24, 0x7E	; 126
    14b8:	80 83       	st	Z, r24
    14ba:	57 98       	cbi	0x0a, 7	; 10
    14bc:	5f 98       	cbi	0x0b, 7	; 11
    14be:	08 95       	ret

000014c0 <heater_set_duty_cycle>:
    14c0:	64 e6       	ldi	r22, 0x64	; 100
    14c2:	0e 94 4b 0d 	call	0x1a96	; 0x1a96 <umin8>
    14c6:	60 e0       	ldi	r22, 0x00	; 0
    14c8:	0e 94 46 0d 	call	0x1a8c	; 0x1a8c <umax8>
    14cc:	2f ef       	ldi	r18, 0xFF	; 255
    14ce:	82 9f       	mul	r24, r18
    14d0:	c0 01       	movw	r24, r0
    14d2:	11 24       	eor	r1, r1
    14d4:	64 e6       	ldi	r22, 0x64	; 100
    14d6:	70 e0       	ldi	r23, 0x00	; 0
    14d8:	0e 94 fc 17 	call	0x2ff8	; 0x2ff8 <__udivmodhi4>
    14dc:	60 93 b3 00 	sts	0x00B3, r22	; 0x8000b3 <__TEXT_REGION_LENGTH__+0x7e00b3>
    14e0:	08 95       	ret

000014e2 <heater_on>:
    14e2:	10 92 b2 00 	sts	0x00B2, r1	; 0x8000b2 <__TEXT_REGION_LENGTH__+0x7e00b2>
    14e6:	10 92 b3 00 	sts	0x00B3, r1	; 0x8000b3 <__TEXT_REGION_LENGTH__+0x7e00b3>
    14ea:	e0 eb       	ldi	r30, 0xB0	; 176
    14ec:	f0 e0       	ldi	r31, 0x00	; 0
    14ee:	80 81       	ld	r24, Z
    14f0:	80 68       	ori	r24, 0x80	; 128
    14f2:	80 83       	st	Z, r24
    14f4:	e1 eb       	ldi	r30, 0xB1	; 177
    14f6:	f0 e0       	ldi	r31, 0x00	; 0
    14f8:	80 81       	ld	r24, Z
    14fa:	86 60       	ori	r24, 0x06	; 6
    14fc:	80 83       	st	Z, r24
    14fe:	08 95       	ret

00001500 <heater_off>:
    1500:	e0 eb       	ldi	r30, 0xB0	; 176
    1502:	f0 e0       	ldi	r31, 0x00	; 0
    1504:	80 81       	ld	r24, Z
    1506:	8f 77       	andi	r24, 0x7F	; 127
    1508:	80 83       	st	Z, r24
    150a:	e1 eb       	ldi	r30, 0xB1	; 177
    150c:	f0 e0       	ldi	r31, 0x00	; 0
    150e:	80 81       	ld	r24, Z
    1510:	89 7f       	andi	r24, 0xF9	; 249
    1512:	80 83       	st	Z, r24
    1514:	10 92 b2 00 	sts	0x00B2, r1	; 0x8000b2 <__TEXT_REGION_LENGTH__+0x7e00b2>
    1518:	08 95       	ret

0000151a <main>:
    151a:	0e 94 b8 06 	call	0xd70	; 0xd70 <app_run>
    151e:	81 11       	cpse	r24, r1
    1520:	ff cf       	rjmp	.-2      	; 0x1520 <main+0x6>
    1522:	80 e0       	ldi	r24, 0x00	; 0
    1524:	90 e0       	ldi	r25, 0x00	; 0
    1526:	08 95       	ret

00001528 <mr_main>:
    1528:	cf 92       	push	r12
    152a:	df 92       	push	r13
    152c:	ef 92       	push	r14
    152e:	ff 92       	push	r15
    1530:	0f 93       	push	r16
    1532:	6b 01       	movw	r12, r22
    1534:	7c 01       	movw	r14, r24
    1536:	41 30       	cpi	r20, 0x01	; 1
    1538:	49 f0       	breq	.+18     	; 0x154c <mr_main+0x24>
    153a:	30 f0       	brcs	.+12     	; 0x1548 <mr_main+0x20>
    153c:	42 30       	cpi	r20, 0x02	; 2
    153e:	41 f0       	breq	.+16     	; 0x1550 <mr_main+0x28>
    1540:	43 30       	cpi	r20, 0x03	; 3
    1542:	51 f4       	brne	.+20     	; 0x1558 <mr_main+0x30>
    1544:	6f ec       	ldi	r22, 0xCF	; 207
    1546:	05 c0       	rjmp	.+10     	; 0x1552 <mr_main+0x2a>
    1548:	6f eb       	ldi	r22, 0xBF	; 191
    154a:	03 c0       	rjmp	.+6      	; 0x1552 <mr_main+0x2a>
    154c:	66 e8       	ldi	r22, 0x86	; 134
    154e:	01 c0       	rjmp	.+2      	; 0x1552 <mr_main+0x2a>
    1550:	6b ed       	ldi	r22, 0xDB	; 219
    1552:	80 e0       	ldi	r24, 0x00	; 0
    1554:	0e 94 32 10 	call	0x2064	; 0x2064 <srd_set>
    1558:	05 e0       	ldi	r16, 0x05	; 5
    155a:	21 e0       	ldi	r18, 0x01	; 1
    155c:	41 e0       	ldi	r20, 0x01	; 1
    155e:	c7 01       	movw	r24, r14
    1560:	b6 01       	movw	r22, r12
    1562:	0e 94 3d 10 	call	0x207a	; 0x207a <srd_setfloat>
    1566:	0f 91       	pop	r16
    1568:	ff 90       	pop	r15
    156a:	ef 90       	pop	r14
    156c:	df 90       	pop	r13
    156e:	cf 90       	pop	r12
    1570:	08 95       	ret

00001572 <mr_main_menu>:
    1572:	82 30       	cpi	r24, 0x02	; 2
    1574:	f1 f0       	breq	.+60     	; 0x15b2 <mr_main_menu+0x40>
    1576:	28 f4       	brcc	.+10     	; 0x1582 <mr_main_menu+0x10>
    1578:	88 23       	and	r24, r24
    157a:	51 f0       	breq	.+20     	; 0x1590 <mr_main_menu+0x1e>
    157c:	81 30       	cpi	r24, 0x01	; 1
    157e:	59 f0       	breq	.+22     	; 0x1596 <mr_main_menu+0x24>
    1580:	08 95       	ret
    1582:	84 30       	cpi	r24, 0x04	; 4
    1584:	d9 f1       	breq	.+118    	; 0x15fc <mr_main_menu+0x8a>
    1586:	20 f1       	brcs	.+72     	; 0x15d0 <mr_main_menu+0x5e>
    1588:	85 30       	cpi	r24, 0x05	; 5
    158a:	09 f4       	brne	.+2      	; 0x158e <mr_main_menu+0x1c>
    158c:	4a c0       	rjmp	.+148    	; 0x1622 <mr_main_menu+0xb0>
    158e:	08 95       	ret
    1590:	60 e4       	ldi	r22, 0x40	; 64
    1592:	80 e0       	ldi	r24, 0x00	; 0
    1594:	5c c0       	rjmp	.+184    	; 0x164e <mr_main_menu+0xdc>
    1596:	64 e7       	ldi	r22, 0x74	; 116
    1598:	80 e0       	ldi	r24, 0x00	; 0
    159a:	0e 94 32 10 	call	0x2064	; 0x2064 <srd_set>
    159e:	69 e7       	ldi	r22, 0x79	; 121
    15a0:	81 e0       	ldi	r24, 0x01	; 1
    15a2:	0e 94 32 10 	call	0x2064	; 0x2064 <srd_set>
    15a6:	67 e7       	ldi	r22, 0x77	; 119
    15a8:	82 e0       	ldi	r24, 0x02	; 2
    15aa:	0e 94 32 10 	call	0x2064	; 0x2064 <srd_set>
    15ae:	68 e7       	ldi	r22, 0x78	; 120
    15b0:	0d c0       	rjmp	.+26     	; 0x15cc <mr_main_menu+0x5a>
    15b2:	6d e6       	ldi	r22, 0x6D	; 109
    15b4:	80 e0       	ldi	r24, 0x00	; 0
    15b6:	0e 94 32 10 	call	0x2064	; 0x2064 <srd_set>
    15ba:	68 e7       	ldi	r22, 0x78	; 120
    15bc:	81 e0       	ldi	r24, 0x01	; 1
    15be:	0e 94 32 10 	call	0x2064	; 0x2064 <srd_set>
    15c2:	66 e0       	ldi	r22, 0x06	; 6
    15c4:	82 e0       	ldi	r24, 0x02	; 2
    15c6:	0e 94 32 10 	call	0x2064	; 0x2064 <srd_set>
    15ca:	60 e5       	ldi	r22, 0x50	; 80
    15cc:	83 e0       	ldi	r24, 0x03	; 3
    15ce:	3f c0       	rjmp	.+126    	; 0x164e <mr_main_menu+0xdc>
    15d0:	68 ef       	ldi	r22, 0xF8	; 248
    15d2:	80 e0       	ldi	r24, 0x00	; 0
    15d4:	0e 94 32 10 	call	0x2064	; 0x2064 <srd_set>
    15d8:	69 e3       	ldi	r22, 0x39	; 57
    15da:	81 e0       	ldi	r24, 0x01	; 1
    15dc:	0e 94 32 10 	call	0x2064	; 0x2064 <srd_set>
    15e0:	67 e7       	ldi	r22, 0x77	; 119
    15e2:	82 e0       	ldi	r24, 0x02	; 2
    15e4:	0e 94 32 10 	call	0x2064	; 0x2064 <srd_set>
    15e8:	68 e3       	ldi	r22, 0x38	; 56
    15ea:	83 e0       	ldi	r24, 0x03	; 3
    15ec:	0e 94 32 10 	call	0x2064	; 0x2064 <srd_set>
    15f0:	66 e0       	ldi	r22, 0x06	; 6
    15f2:	84 e0       	ldi	r24, 0x04	; 4
    15f4:	0e 94 32 10 	call	0x2064	; 0x2064 <srd_set>
    15f8:	6c e7       	ldi	r22, 0x7C	; 124
    15fa:	28 c0       	rjmp	.+80     	; 0x164c <mr_main_menu+0xda>
    15fc:	68 e3       	ldi	r22, 0x38	; 56
    15fe:	80 e0       	ldi	r24, 0x00	; 0
    1600:	0e 94 32 10 	call	0x2064	; 0x2064 <srd_set>
    1604:	6c e5       	ldi	r22, 0x5C	; 92
    1606:	81 e0       	ldi	r24, 0x01	; 1
    1608:	0e 94 32 10 	call	0x2064	; 0x2064 <srd_set>
    160c:	67 e7       	ldi	r22, 0x77	; 119
    160e:	82 e0       	ldi	r24, 0x02	; 2
    1610:	0e 94 32 10 	call	0x2064	; 0x2064 <srd_set>
    1614:	6e ed       	ldi	r22, 0xDE	; 222
    1616:	83 e0       	ldi	r24, 0x03	; 3
    1618:	0e 94 32 10 	call	0x2064	; 0x2064 <srd_set>
    161c:	6d ee       	ldi	r22, 0xED	; 237
    161e:	84 e0       	ldi	r24, 0x04	; 4
    1620:	16 c0       	rjmp	.+44     	; 0x164e <mr_main_menu+0xdc>
    1622:	6d e6       	ldi	r22, 0x6D	; 109
    1624:	80 e0       	ldi	r24, 0x00	; 0
    1626:	0e 94 32 10 	call	0x2064	; 0x2064 <srd_set>
    162a:	68 e7       	ldi	r22, 0x78	; 120
    162c:	81 e0       	ldi	r24, 0x01	; 1
    162e:	0e 94 32 10 	call	0x2064	; 0x2064 <srd_set>
    1632:	6c e5       	ldi	r22, 0x5C	; 92
    1634:	82 e0       	ldi	r24, 0x02	; 2
    1636:	0e 94 32 10 	call	0x2064	; 0x2064 <srd_set>
    163a:	60 e5       	ldi	r22, 0x50	; 80
    163c:	83 e0       	ldi	r24, 0x03	; 3
    163e:	0e 94 32 10 	call	0x2064	; 0x2064 <srd_set>
    1642:	69 ef       	ldi	r22, 0xF9	; 249
    1644:	84 e0       	ldi	r24, 0x04	; 4
    1646:	0e 94 32 10 	call	0x2064	; 0x2064 <srd_set>
    164a:	6d ee       	ldi	r22, 0xED	; 237
    164c:	85 e0       	ldi	r24, 0x05	; 5
    164e:	0c 94 32 10 	jmp	0x2064	; 0x2064 <srd_set>

00001652 <mr_heater_menu>:
    1652:	82 30       	cpi	r24, 0x02	; 2
    1654:	39 f1       	breq	.+78     	; 0x16a4 <mr_heater_menu+0x52>
    1656:	28 f4       	brcc	.+10     	; 0x1662 <mr_heater_menu+0x10>
    1658:	88 23       	and	r24, r24
    165a:	51 f0       	breq	.+20     	; 0x1670 <mr_heater_menu+0x1e>
    165c:	81 30       	cpi	r24, 0x01	; 1
    165e:	79 f0       	breq	.+30     	; 0x167e <mr_heater_menu+0x2c>
    1660:	08 95       	ret
    1662:	84 30       	cpi	r24, 0x04	; 4
    1664:	d9 f1       	breq	.+118    	; 0x16dc <mr_heater_menu+0x8a>
    1666:	60 f1       	brcs	.+88     	; 0x16c0 <mr_heater_menu+0x6e>
    1668:	85 30       	cpi	r24, 0x05	; 5
    166a:	09 f4       	brne	.+2      	; 0x166e <mr_heater_menu+0x1c>
    166c:	42 c0       	rjmp	.+132    	; 0x16f2 <mr_heater_menu+0xa0>
    166e:	08 95       	ret
    1670:	60 e4       	ldi	r22, 0x40	; 64
    1672:	80 e0       	ldi	r24, 0x00	; 0
    1674:	0e 94 32 10 	call	0x2064	; 0x2064 <srd_set>
    1678:	60 e4       	ldi	r22, 0x40	; 64
    167a:	81 e0       	ldi	r24, 0x01	; 1
    167c:	48 c0       	rjmp	.+144    	; 0x170e <mr_heater_menu+0xbc>
    167e:	6c e5       	ldi	r22, 0x5C	; 92
    1680:	80 e0       	ldi	r24, 0x00	; 0
    1682:	0e 94 32 10 	call	0x2064	; 0x2064 <srd_set>
    1686:	64 e5       	ldi	r22, 0x54	; 84
    1688:	81 e0       	ldi	r24, 0x01	; 1
    168a:	0e 94 32 10 	call	0x2064	; 0x2064 <srd_set>
    168e:	6c e5       	ldi	r22, 0x5C	; 92
    1690:	82 e0       	ldi	r24, 0x02	; 2
    1692:	0e 94 32 10 	call	0x2064	; 0x2064 <srd_set>
    1696:	61 e7       	ldi	r22, 0x71	; 113
    1698:	83 e0       	ldi	r24, 0x03	; 3
    169a:	0e 94 32 10 	call	0x2064	; 0x2064 <srd_set>
    169e:	61 e7       	ldi	r22, 0x71	; 113
    16a0:	84 e0       	ldi	r24, 0x04	; 4
    16a2:	35 c0       	rjmp	.+106    	; 0x170e <mr_heater_menu+0xbc>
    16a4:	68 e7       	ldi	r22, 0x78	; 120
    16a6:	80 e0       	ldi	r24, 0x00	; 0
    16a8:	0e 94 32 10 	call	0x2064	; 0x2064 <srd_set>
    16ac:	6f ee       	ldi	r22, 0xEF	; 239
    16ae:	81 e0       	ldi	r24, 0x01	; 1
    16b0:	0e 94 32 10 	call	0x2064	; 0x2064 <srd_set>
    16b4:	68 e7       	ldi	r22, 0x78	; 120
    16b6:	82 e0       	ldi	r24, 0x02	; 2
    16b8:	0e 94 32 10 	call	0x2064	; 0x2064 <srd_set>
    16bc:	63 e7       	ldi	r22, 0x73	; 115
    16be:	26 c0       	rjmp	.+76     	; 0x170c <mr_heater_menu+0xba>
    16c0:	68 ef       	ldi	r22, 0xF8	; 248
    16c2:	80 e0       	ldi	r24, 0x00	; 0
    16c4:	0e 94 32 10 	call	0x2064	; 0x2064 <srd_set>
    16c8:	6d e6       	ldi	r22, 0x6D	; 109
    16ca:	81 e0       	ldi	r24, 0x01	; 1
    16cc:	0e 94 32 10 	call	0x2064	; 0x2064 <srd_set>
    16d0:	69 e7       	ldi	r22, 0x79	; 121
    16d2:	82 e0       	ldi	r24, 0x02	; 2
    16d4:	0e 94 32 10 	call	0x2064	; 0x2064 <srd_set>
    16d8:	68 e3       	ldi	r22, 0x38	; 56
    16da:	18 c0       	rjmp	.+48     	; 0x170c <mr_heater_menu+0xba>
    16dc:	63 e7       	ldi	r22, 0x73	; 115
    16de:	80 e0       	ldi	r24, 0x00	; 0
    16e0:	0e 94 32 10 	call	0x2064	; 0x2064 <srd_set>
    16e4:	66 e0       	ldi	r22, 0x06	; 6
    16e6:	81 e0       	ldi	r24, 0x01	; 1
    16e8:	0e 94 32 10 	call	0x2064	; 0x2064 <srd_set>
    16ec:	6e e5       	ldi	r22, 0x5E	; 94
    16ee:	82 e0       	ldi	r24, 0x02	; 2
    16f0:	0e c0       	rjmp	.+28     	; 0x170e <mr_heater_menu+0xbc>
    16f2:	6c e5       	ldi	r22, 0x5C	; 92
    16f4:	80 e0       	ldi	r24, 0x00	; 0
    16f6:	0e 94 32 10 	call	0x2064	; 0x2064 <srd_set>
    16fa:	61 e7       	ldi	r22, 0x71	; 113
    16fc:	81 e0       	ldi	r24, 0x01	; 1
    16fe:	0e 94 32 10 	call	0x2064	; 0x2064 <srd_set>
    1702:	61 e7       	ldi	r22, 0x71	; 113
    1704:	82 e0       	ldi	r24, 0x02	; 2
    1706:	0e 94 32 10 	call	0x2064	; 0x2064 <srd_set>
    170a:	6d e6       	ldi	r22, 0x6D	; 109
    170c:	83 e0       	ldi	r24, 0x03	; 3
    170e:	0c 94 32 10 	jmp	0x2064	; 0x2064 <srd_set>

00001712 <mr_stirrer_menu>:
    1712:	88 23       	and	r24, r24
    1714:	19 f0       	breq	.+6      	; 0x171c <mr_stirrer_menu+0xa>
    1716:	81 30       	cpi	r24, 0x01	; 1
    1718:	41 f0       	breq	.+16     	; 0x172a <mr_stirrer_menu+0x18>
    171a:	08 95       	ret
    171c:	60 e4       	ldi	r22, 0x40	; 64
    171e:	80 e0       	ldi	r24, 0x00	; 0
    1720:	0e 94 32 10 	call	0x2064	; 0x2064 <srd_set>
    1724:	60 e4       	ldi	r22, 0x40	; 64
    1726:	81 e0       	ldi	r24, 0x01	; 1
    1728:	12 c0       	rjmp	.+36     	; 0x174e <mr_stirrer_menu+0x3c>
    172a:	6d e6       	ldi	r22, 0x6D	; 109
    172c:	80 e0       	ldi	r24, 0x00	; 0
    172e:	0e 94 32 10 	call	0x2064	; 0x2064 <srd_set>
    1732:	63 e7       	ldi	r22, 0x73	; 115
    1734:	81 e0       	ldi	r24, 0x01	; 1
    1736:	0e 94 32 10 	call	0x2064	; 0x2064 <srd_set>
    173a:	69 e7       	ldi	r22, 0x79	; 121
    173c:	82 e0       	ldi	r24, 0x02	; 2
    173e:	0e 94 32 10 	call	0x2064	; 0x2064 <srd_set>
    1742:	69 e7       	ldi	r22, 0x79	; 121
    1744:	83 e0       	ldi	r24, 0x03	; 3
    1746:	0e 94 32 10 	call	0x2064	; 0x2064 <srd_set>
    174a:	6e e5       	ldi	r22, 0x5E	; 94
    174c:	84 e0       	ldi	r24, 0x04	; 4
    174e:	0c 94 32 10 	jmp	0x2064	; 0x2064 <srd_set>

00001752 <mr_heater_menu_controlling_probe_select>:
    1752:	66 23       	and	r22, r22
    1754:	01 f1       	breq	.+64     	; 0x1796 <mr_heater_menu_controlling_probe_select+0x44>
    1756:	81 30       	cpi	r24, 0x01	; 1
    1758:	89 f0       	breq	.+34     	; 0x177c <mr_heater_menu_controlling_probe_select+0x2a>
    175a:	50 f0       	brcs	.+20     	; 0x1770 <mr_heater_menu_controlling_probe_select+0x1e>
    175c:	82 30       	cpi	r24, 0x02	; 2
    175e:	a1 f0       	breq	.+40     	; 0x1788 <mr_heater_menu_controlling_probe_select+0x36>
    1760:	83 30       	cpi	r24, 0x03	; 3
    1762:	c9 f4       	brne	.+50     	; 0x1796 <mr_heater_menu_controlling_probe_select+0x44>
    1764:	68 e7       	ldi	r22, 0x78	; 120
    1766:	84 e0       	ldi	r24, 0x04	; 4
    1768:	0e 94 32 10 	call	0x2064	; 0x2064 <srd_set>
    176c:	6f e4       	ldi	r22, 0x4F	; 79
    176e:	11 c0       	rjmp	.+34     	; 0x1792 <mr_heater_menu_controlling_probe_select+0x40>
    1770:	68 e7       	ldi	r22, 0x78	; 120
    1772:	84 e0       	ldi	r24, 0x04	; 4
    1774:	0e 94 32 10 	call	0x2064	; 0x2064 <srd_set>
    1778:	6f e3       	ldi	r22, 0x3F	; 63
    177a:	0b c0       	rjmp	.+22     	; 0x1792 <mr_heater_menu_controlling_probe_select+0x40>
    177c:	68 e7       	ldi	r22, 0x78	; 120
    177e:	84 e0       	ldi	r24, 0x04	; 4
    1780:	0e 94 32 10 	call	0x2064	; 0x2064 <srd_set>
    1784:	66 e0       	ldi	r22, 0x06	; 6
    1786:	05 c0       	rjmp	.+10     	; 0x1792 <mr_heater_menu_controlling_probe_select+0x40>
    1788:	68 e7       	ldi	r22, 0x78	; 120
    178a:	84 e0       	ldi	r24, 0x04	; 4
    178c:	0e 94 32 10 	call	0x2064	; 0x2064 <srd_set>
    1790:	6b e5       	ldi	r22, 0x5B	; 91
    1792:	85 e0       	ldi	r24, 0x05	; 5
    1794:	06 c0       	rjmp	.+12     	; 0x17a2 <mr_heater_menu_controlling_probe_select+0x50>
    1796:	64 e5       	ldi	r22, 0x54	; 84
    1798:	80 e0       	ldi	r24, 0x00	; 0
    179a:	0e 94 32 10 	call	0x2064	; 0x2064 <srd_set>
    179e:	69 e3       	ldi	r22, 0x39	; 57
    17a0:	81 e0       	ldi	r24, 0x01	; 1
    17a2:	0c 94 32 10 	jmp	0x2064	; 0x2064 <srd_set>

000017a6 <mr_heater_menu_pid>:
    17a6:	81 30       	cpi	r24, 0x01	; 1
    17a8:	89 f0       	breq	.+34     	; 0x17cc <mr_heater_menu_pid+0x26>
    17aa:	28 f0       	brcs	.+10     	; 0x17b6 <mr_heater_menu_pid+0x10>
    17ac:	82 30       	cpi	r24, 0x02	; 2
    17ae:	81 f0       	breq	.+32     	; 0x17d0 <mr_heater_menu_pid+0x2a>
    17b0:	83 30       	cpi	r24, 0x03	; 3
    17b2:	81 f0       	breq	.+32     	; 0x17d4 <mr_heater_menu_pid+0x2e>
    17b4:	08 95       	ret
    17b6:	60 e4       	ldi	r22, 0x40	; 64
    17b8:	80 e0       	ldi	r24, 0x00	; 0
    17ba:	0e 94 32 10 	call	0x2064	; 0x2064 <srd_set>
    17be:	60 e4       	ldi	r22, 0x40	; 64
    17c0:	81 e0       	ldi	r24, 0x01	; 1
    17c2:	0e 94 32 10 	call	0x2064	; 0x2064 <srd_set>
    17c6:	60 e4       	ldi	r22, 0x40	; 64
    17c8:	82 e0       	ldi	r24, 0x02	; 2
    17ca:	06 c0       	rjmp	.+12     	; 0x17d8 <mr_heater_menu_pid+0x32>
    17cc:	63 e7       	ldi	r22, 0x73	; 115
    17ce:	03 c0       	rjmp	.+6      	; 0x17d6 <mr_heater_menu_pid+0x30>
    17d0:	66 e0       	ldi	r22, 0x06	; 6
    17d2:	01 c0       	rjmp	.+2      	; 0x17d6 <mr_heater_menu_pid+0x30>
    17d4:	6e e5       	ldi	r22, 0x5E	; 94
    17d6:	80 e0       	ldi	r24, 0x00	; 0
    17d8:	0c 94 32 10 	jmp	0x2064	; 0x2064 <srd_set>

000017dc <mr_heater_menu_onoff>:
    17dc:	60 e3       	ldi	r22, 0x30	; 48
    17de:	88 23       	and	r24, r24
    17e0:	51 f0       	breq	.+20     	; 0x17f6 <mr_heater_menu_onoff+0x1a>
    17e2:	80 e0       	ldi	r24, 0x00	; 0
    17e4:	0e 94 32 10 	call	0x2064	; 0x2064 <srd_set>
    17e8:	6c e5       	ldi	r22, 0x5C	; 92
    17ea:	81 e0       	ldi	r24, 0x01	; 1
    17ec:	0e 94 32 10 	call	0x2064	; 0x2064 <srd_set>
    17f0:	64 e5       	ldi	r22, 0x54	; 84
    17f2:	82 e0       	ldi	r24, 0x02	; 2
    17f4:	0d c0       	rjmp	.+26     	; 0x1810 <mr_heater_menu_onoff+0x34>
    17f6:	80 e0       	ldi	r24, 0x00	; 0
    17f8:	0e 94 32 10 	call	0x2064	; 0x2064 <srd_set>
    17fc:	6c e5       	ldi	r22, 0x5C	; 92
    17fe:	81 e0       	ldi	r24, 0x01	; 1
    1800:	0e 94 32 10 	call	0x2064	; 0x2064 <srd_set>
    1804:	61 e7       	ldi	r22, 0x71	; 113
    1806:	82 e0       	ldi	r24, 0x02	; 2
    1808:	0e 94 32 10 	call	0x2064	; 0x2064 <srd_set>
    180c:	61 e7       	ldi	r22, 0x71	; 113
    180e:	83 e0       	ldi	r24, 0x03	; 3
    1810:	0c 94 32 10 	jmp	0x2064	; 0x2064 <srd_set>

00001814 <mr_heater_menu_pid_p>:
    1814:	cf 92       	push	r12
    1816:	df 92       	push	r13
    1818:	ef 92       	push	r14
    181a:	ff 92       	push	r15
    181c:	0f 93       	push	r16
    181e:	6b 01       	movw	r12, r22
    1820:	7c 01       	movw	r14, r24
    1822:	63 e7       	ldi	r22, 0x73	; 115
    1824:	80 e0       	ldi	r24, 0x00	; 0
    1826:	0e 94 32 10 	call	0x2064	; 0x2064 <srd_set>
    182a:	05 e0       	ldi	r16, 0x05	; 5
    182c:	22 e0       	ldi	r18, 0x02	; 2
    182e:	41 e0       	ldi	r20, 0x01	; 1
    1830:	c7 01       	movw	r24, r14
    1832:	b6 01       	movw	r22, r12
    1834:	0e 94 3d 10 	call	0x207a	; 0x207a <srd_setfloat>
    1838:	0f 91       	pop	r16
    183a:	ff 90       	pop	r15
    183c:	ef 90       	pop	r14
    183e:	df 90       	pop	r13
    1840:	cf 90       	pop	r12
    1842:	08 95       	ret

00001844 <mr_heater_menu_pid_i>:
    1844:	cf 92       	push	r12
    1846:	df 92       	push	r13
    1848:	ef 92       	push	r14
    184a:	ff 92       	push	r15
    184c:	0f 93       	push	r16
    184e:	6b 01       	movw	r12, r22
    1850:	7c 01       	movw	r14, r24
    1852:	66 e0       	ldi	r22, 0x06	; 6
    1854:	80 e0       	ldi	r24, 0x00	; 0
    1856:	0e 94 32 10 	call	0x2064	; 0x2064 <srd_set>
    185a:	05 e0       	ldi	r16, 0x05	; 5
    185c:	22 e0       	ldi	r18, 0x02	; 2
    185e:	41 e0       	ldi	r20, 0x01	; 1
    1860:	c7 01       	movw	r24, r14
    1862:	b6 01       	movw	r22, r12
    1864:	0e 94 3d 10 	call	0x207a	; 0x207a <srd_setfloat>
    1868:	0f 91       	pop	r16
    186a:	ff 90       	pop	r15
    186c:	ef 90       	pop	r14
    186e:	df 90       	pop	r13
    1870:	cf 90       	pop	r12
    1872:	08 95       	ret

00001874 <mr_heater_menu_pid_d>:
    1874:	cf 92       	push	r12
    1876:	df 92       	push	r13
    1878:	ef 92       	push	r14
    187a:	ff 92       	push	r15
    187c:	0f 93       	push	r16
    187e:	6b 01       	movw	r12, r22
    1880:	7c 01       	movw	r14, r24
    1882:	6e e5       	ldi	r22, 0x5E	; 94
    1884:	80 e0       	ldi	r24, 0x00	; 0
    1886:	0e 94 32 10 	call	0x2064	; 0x2064 <srd_set>
    188a:	05 e0       	ldi	r16, 0x05	; 5
    188c:	22 e0       	ldi	r18, 0x02	; 2
    188e:	41 e0       	ldi	r20, 0x01	; 1
    1890:	c7 01       	movw	r24, r14
    1892:	b6 01       	movw	r22, r12
    1894:	0e 94 3d 10 	call	0x207a	; 0x207a <srd_setfloat>
    1898:	0f 91       	pop	r16
    189a:	ff 90       	pop	r15
    189c:	ef 90       	pop	r14
    189e:	df 90       	pop	r13
    18a0:	cf 90       	pop	r12
    18a2:	08 95       	ret

000018a4 <mr_heater_menu_offset>:
    18a4:	cf 92       	push	r12
    18a6:	df 92       	push	r13
    18a8:	ef 92       	push	r14
    18aa:	ff 92       	push	r15
    18ac:	0f 93       	push	r16
    18ae:	6b 01       	movw	r12, r22
    18b0:	7c 01       	movw	r14, r24
    18b2:	60 e3       	ldi	r22, 0x30	; 48
    18b4:	80 e0       	ldi	r24, 0x00	; 0
    18b6:	0e 94 32 10 	call	0x2064	; 0x2064 <srd_set>
    18ba:	05 e0       	ldi	r16, 0x05	; 5
    18bc:	21 e0       	ldi	r18, 0x01	; 1
    18be:	41 e0       	ldi	r20, 0x01	; 1
    18c0:	c7 01       	movw	r24, r14
    18c2:	b6 01       	movw	r22, r12
    18c4:	0e 94 3d 10 	call	0x207a	; 0x207a <srd_setfloat>
    18c8:	0f 91       	pop	r16
    18ca:	ff 90       	pop	r15
    18cc:	ef 90       	pop	r14
    18ce:	df 90       	pop	r13
    18d0:	cf 90       	pop	r12
    18d2:	08 95       	ret

000018d4 <mr_heater_menu_target_temp>:
    18d4:	0c 94 52 0c 	jmp	0x18a4	; 0x18a4 <mr_heater_menu_offset>

000018d8 <mr_stirrer_menu_dc>:
    18d8:	cf 93       	push	r28
    18da:	c8 2f       	mov	r28, r24
    18dc:	60 e3       	ldi	r22, 0x30	; 48
    18de:	80 e0       	ldi	r24, 0x00	; 0
    18e0:	0e 94 32 10 	call	0x2064	; 0x2064 <srd_set>
    18e4:	cc 23       	and	r28, r28
    18e6:	39 f0       	breq	.+14     	; 0x18f6 <mr_stirrer_menu_dc+0x1e>
    18e8:	45 e0       	ldi	r20, 0x05	; 5
    18ea:	61 e0       	ldi	r22, 0x01	; 1
    18ec:	8c 2f       	mov	r24, r28
    18ee:	90 e0       	ldi	r25, 0x00	; 0
    18f0:	cf 91       	pop	r28
    18f2:	0c 94 30 11 	jmp	0x2260	; 0x2260 <srd_setint16>
    18f6:	6c e5       	ldi	r22, 0x5C	; 92
    18f8:	81 e0       	ldi	r24, 0x01	; 1
    18fa:	0e 94 32 10 	call	0x2064	; 0x2064 <srd_set>
    18fe:	61 e7       	ldi	r22, 0x71	; 113
    1900:	82 e0       	ldi	r24, 0x02	; 2
    1902:	0e 94 32 10 	call	0x2064	; 0x2064 <srd_set>
    1906:	61 e7       	ldi	r22, 0x71	; 113
    1908:	83 e0       	ldi	r24, 0x03	; 3
    190a:	cf 91       	pop	r28
    190c:	0c 94 32 10 	jmp	0x2064	; 0x2064 <srd_set>

00001910 <mr_tprobe_menu>:
    1910:	82 30       	cpi	r24, 0x02	; 2
    1912:	b9 f0       	breq	.+46     	; 0x1942 <mr_tprobe_menu+0x32>
    1914:	28 f4       	brcc	.+10     	; 0x1920 <mr_tprobe_menu+0x10>
    1916:	88 23       	and	r24, r24
    1918:	41 f0       	breq	.+16     	; 0x192a <mr_tprobe_menu+0x1a>
    191a:	81 30       	cpi	r24, 0x01	; 1
    191c:	61 f0       	breq	.+24     	; 0x1936 <mr_tprobe_menu+0x26>
    191e:	08 95       	ret
    1920:	83 30       	cpi	r24, 0x03	; 3
    1922:	a9 f0       	breq	.+42     	; 0x194e <mr_tprobe_menu+0x3e>
    1924:	84 30       	cpi	r24, 0x04	; 4
    1926:	c9 f0       	breq	.+50     	; 0x195a <mr_tprobe_menu+0x4a>
    1928:	08 95       	ret
    192a:	60 e4       	ldi	r22, 0x40	; 64
    192c:	80 e0       	ldi	r24, 0x00	; 0
    192e:	0e 94 32 10 	call	0x2064	; 0x2064 <srd_set>
    1932:	60 e4       	ldi	r22, 0x40	; 64
    1934:	17 c0       	rjmp	.+46     	; 0x1964 <mr_tprobe_menu+0x54>
    1936:	68 e7       	ldi	r22, 0x78	; 120
    1938:	80 e0       	ldi	r24, 0x00	; 0
    193a:	0e 94 32 10 	call	0x2064	; 0x2064 <srd_set>
    193e:	6f e3       	ldi	r22, 0x3F	; 63
    1940:	11 c0       	rjmp	.+34     	; 0x1964 <mr_tprobe_menu+0x54>
    1942:	68 e7       	ldi	r22, 0x78	; 120
    1944:	80 e0       	ldi	r24, 0x00	; 0
    1946:	0e 94 32 10 	call	0x2064	; 0x2064 <srd_set>
    194a:	66 e0       	ldi	r22, 0x06	; 6
    194c:	0b c0       	rjmp	.+22     	; 0x1964 <mr_tprobe_menu+0x54>
    194e:	68 e7       	ldi	r22, 0x78	; 120
    1950:	80 e0       	ldi	r24, 0x00	; 0
    1952:	0e 94 32 10 	call	0x2064	; 0x2064 <srd_set>
    1956:	6b e5       	ldi	r22, 0x5B	; 91
    1958:	05 c0       	rjmp	.+10     	; 0x1964 <mr_tprobe_menu+0x54>
    195a:	68 e7       	ldi	r22, 0x78	; 120
    195c:	80 e0       	ldi	r24, 0x00	; 0
    195e:	0e 94 32 10 	call	0x2064	; 0x2064 <srd_set>
    1962:	6f e4       	ldi	r22, 0x4F	; 79
    1964:	81 e0       	ldi	r24, 0x01	; 1
    1966:	0c 94 32 10 	jmp	0x2064	; 0x2064 <srd_set>

0000196a <mr_tprobe_calib_menu>:
    196a:	0f 93       	push	r16
    196c:	9f 77       	andi	r25, 0x7F	; 127
    196e:	20 e0       	ldi	r18, 0x00	; 0
    1970:	30 e0       	ldi	r19, 0x00	; 0
    1972:	4a e7       	ldi	r20, 0x7A	; 122
    1974:	54 e4       	ldi	r21, 0x44	; 68
    1976:	0e 94 5f 15 	call	0x2abe	; 0x2abe <__divsf3>
    197a:	06 e0       	ldi	r16, 0x06	; 6
    197c:	23 e0       	ldi	r18, 0x03	; 3
    197e:	40 e0       	ldi	r20, 0x00	; 0
    1980:	0e 94 3d 10 	call	0x207a	; 0x207a <srd_setfloat>
    1984:	0f 91       	pop	r16
    1986:	08 95       	ret

00001988 <mr_tprobe_calib_menu_nc>:
    1988:	64 e5       	ldi	r22, 0x54	; 84
    198a:	80 e0       	ldi	r24, 0x00	; 0
    198c:	0e 94 32 10 	call	0x2064	; 0x2064 <srd_set>
    1990:	69 e3       	ldi	r22, 0x39	; 57
    1992:	81 e0       	ldi	r24, 0x01	; 1
    1994:	0c 94 32 10 	jmp	0x2064	; 0x2064 <srd_set>

00001998 <mr_thermistor_error>:
    1998:	cf 93       	push	r28
    199a:	c8 2f       	mov	r28, r24
    199c:	68 e7       	ldi	r22, 0x78	; 120
    199e:	80 e0       	ldi	r24, 0x00	; 0
    19a0:	0e 94 32 10 	call	0x2064	; 0x2064 <srd_set>
    19a4:	64 ef       	ldi	r22, 0xF4	; 244
    19a6:	81 e0       	ldi	r24, 0x01	; 1
    19a8:	0e 94 32 10 	call	0x2064	; 0x2064 <srd_set>
    19ac:	c2 30       	cpi	r28, 0x02	; 2
    19ae:	21 f1       	breq	.+72     	; 0x19f8 <mr_thermistor_error+0x60>
    19b0:	88 f4       	brcc	.+34     	; 0x19d4 <mr_thermistor_error+0x3c>
    19b2:	c1 30       	cpi	r28, 0x01	; 1
    19b4:	09 f0       	breq	.+2      	; 0x19b8 <mr_thermistor_error+0x20>
    19b6:	3f c0       	rjmp	.+126    	; 0x1a36 <mr_thermistor_error+0x9e>
    19b8:	6c e5       	ldi	r22, 0x5C	; 92
    19ba:	82 e0       	ldi	r24, 0x02	; 2
    19bc:	0e 94 32 10 	call	0x2064	; 0x2064 <srd_set>
    19c0:	63 e7       	ldi	r22, 0x73	; 115
    19c2:	83 e0       	ldi	r24, 0x03	; 3
    19c4:	0e 94 32 10 	call	0x2064	; 0x2064 <srd_set>
    19c8:	69 e7       	ldi	r22, 0x79	; 121
    19ca:	84 e0       	ldi	r24, 0x04	; 4
    19cc:	0e 94 32 10 	call	0x2064	; 0x2064 <srd_set>
    19d0:	64 e5       	ldi	r22, 0x54	; 84
    19d2:	2d c0       	rjmp	.+90     	; 0x1a2e <mr_thermistor_error+0x96>
    19d4:	c3 30       	cpi	r28, 0x03	; 3
    19d6:	f1 f0       	breq	.+60     	; 0x1a14 <mr_thermistor_error+0x7c>
    19d8:	c4 30       	cpi	r28, 0x04	; 4
    19da:	69 f5       	brne	.+90     	; 0x1a36 <mr_thermistor_error+0x9e>
    19dc:	64 e5       	ldi	r22, 0x54	; 84
    19de:	82 e0       	ldi	r24, 0x02	; 2
    19e0:	0e 94 32 10 	call	0x2064	; 0x2064 <srd_set>
    19e4:	6c e5       	ldi	r22, 0x5C	; 92
    19e6:	83 e0       	ldi	r24, 0x03	; 3
    19e8:	0e 94 32 10 	call	0x2064	; 0x2064 <srd_set>
    19ec:	63 e7       	ldi	r22, 0x73	; 115
    19ee:	84 e0       	ldi	r24, 0x04	; 4
    19f0:	0e 94 32 10 	call	0x2064	; 0x2064 <srd_set>
    19f4:	69 e7       	ldi	r22, 0x79	; 121
    19f6:	1b c0       	rjmp	.+54     	; 0x1a2e <mr_thermistor_error+0x96>
    19f8:	6d e6       	ldi	r22, 0x6D	; 109
    19fa:	82 e0       	ldi	r24, 0x02	; 2
    19fc:	0e 94 32 10 	call	0x2064	; 0x2064 <srd_set>
    1a00:	64 e7       	ldi	r22, 0x74	; 116
    1a02:	83 e0       	ldi	r24, 0x03	; 3
    1a04:	0e 94 32 10 	call	0x2064	; 0x2064 <srd_set>
    1a08:	60 e5       	ldi	r22, 0x50	; 80
    1a0a:	84 e0       	ldi	r24, 0x04	; 4
    1a0c:	0e 94 32 10 	call	0x2064	; 0x2064 <srd_set>
    1a10:	68 e7       	ldi	r22, 0x78	; 120
    1a12:	0d c0       	rjmp	.+26     	; 0x1a2e <mr_thermistor_error+0x96>
    1a14:	64 e5       	ldi	r22, 0x54	; 84
    1a16:	82 e0       	ldi	r24, 0x02	; 2
    1a18:	0e 94 32 10 	call	0x2064	; 0x2064 <srd_set>
    1a1c:	60 e5       	ldi	r22, 0x50	; 80
    1a1e:	83 e0       	ldi	r24, 0x03	; 3
    1a20:	0e 94 32 10 	call	0x2064	; 0x2064 <srd_set>
    1a24:	69 e7       	ldi	r22, 0x79	; 121
    1a26:	84 e0       	ldi	r24, 0x04	; 4
    1a28:	0e 94 32 10 	call	0x2064	; 0x2064 <srd_set>
    1a2c:	6d e6       	ldi	r22, 0x6D	; 109
    1a2e:	85 e0       	ldi	r24, 0x05	; 5
    1a30:	cf 91       	pop	r28
    1a32:	0c 94 32 10 	jmp	0x2064	; 0x2064 <srd_set>
    1a36:	cf 91       	pop	r28
    1a38:	08 95       	ret

00001a3a <decpowi16>:
    1a3a:	ac 01       	movw	r20, r24
    1a3c:	20 e0       	ldi	r18, 0x00	; 0
    1a3e:	81 e0       	ldi	r24, 0x01	; 1
    1a40:	90 e0       	ldi	r25, 0x00	; 0
    1a42:	3a e0       	ldi	r19, 0x0A	; 10
    1a44:	62 2f       	mov	r22, r18
    1a46:	70 e0       	ldi	r23, 0x00	; 0
    1a48:	64 17       	cp	r22, r20
    1a4a:	75 07       	cpc	r23, r21
    1a4c:	44 f4       	brge	.+16     	; 0x1a5e <decpowi16+0x24>
    1a4e:	bc 01       	movw	r22, r24
    1a50:	36 9f       	mul	r19, r22
    1a52:	c0 01       	movw	r24, r0
    1a54:	37 9f       	mul	r19, r23
    1a56:	90 0d       	add	r25, r0
    1a58:	11 24       	eor	r1, r1
    1a5a:	2f 5f       	subi	r18, 0xFF	; 255
    1a5c:	f3 cf       	rjmp	.-26     	; 0x1a44 <decpowi16+0xa>
    1a5e:	08 95       	ret

00001a60 <imax8>:
    1a60:	68 17       	cp	r22, r24
    1a62:	0c f4       	brge	.+2      	; 0x1a66 <imax8+0x6>
    1a64:	68 2f       	mov	r22, r24
    1a66:	86 2f       	mov	r24, r22
    1a68:	08 95       	ret

00001a6a <imax16>:
    1a6a:	68 17       	cp	r22, r24
    1a6c:	79 07       	cpc	r23, r25
    1a6e:	0c f4       	brge	.+2      	; 0x1a72 <imax16+0x8>
    1a70:	bc 01       	movw	r22, r24
    1a72:	cb 01       	movw	r24, r22
    1a74:	08 95       	ret

00001a76 <imin8>:
    1a76:	86 17       	cp	r24, r22
    1a78:	0c f4       	brge	.+2      	; 0x1a7c <imin8+0x6>
    1a7a:	68 2f       	mov	r22, r24
    1a7c:	86 2f       	mov	r24, r22
    1a7e:	08 95       	ret

00001a80 <imin16>:
    1a80:	86 17       	cp	r24, r22
    1a82:	97 07       	cpc	r25, r23
    1a84:	0c f4       	brge	.+2      	; 0x1a88 <imin16+0x8>
    1a86:	bc 01       	movw	r22, r24
    1a88:	cb 01       	movw	r24, r22
    1a8a:	08 95       	ret

00001a8c <umax8>:
    1a8c:	68 17       	cp	r22, r24
    1a8e:	08 f4       	brcc	.+2      	; 0x1a92 <umax8+0x6>
    1a90:	68 2f       	mov	r22, r24
    1a92:	86 2f       	mov	r24, r22
    1a94:	08 95       	ret

00001a96 <umin8>:
    1a96:	86 17       	cp	r24, r22
    1a98:	08 f4       	brcc	.+2      	; 0x1a9c <umin8+0x6>
    1a9a:	68 2f       	mov	r22, r24
    1a9c:	86 2f       	mov	r24, r22
    1a9e:	08 95       	ret

00001aa0 <fmax>:
    1aa0:	cf 92       	push	r12
    1aa2:	df 92       	push	r13
    1aa4:	ef 92       	push	r14
    1aa6:	ff 92       	push	r15
    1aa8:	0f 93       	push	r16
    1aaa:	1f 93       	push	r17
    1aac:	cf 93       	push	r28
    1aae:	df 93       	push	r29
    1ab0:	8b 01       	movw	r16, r22
    1ab2:	d8 2f       	mov	r29, r24
    1ab4:	c9 2f       	mov	r28, r25
    1ab6:	69 01       	movw	r12, r18
    1ab8:	7a 01       	movw	r14, r20
    1aba:	0e 94 05 17 	call	0x2e0a	; 0x2e0a <__gesf2>
    1abe:	18 16       	cp	r1, r24
    1ac0:	1c f0       	brlt	.+6      	; 0x1ac8 <fmax+0x28>
    1ac2:	86 01       	movw	r16, r12
    1ac4:	de 2d       	mov	r29, r14
    1ac6:	cf 2d       	mov	r28, r15
    1ac8:	b8 01       	movw	r22, r16
    1aca:	8d 2f       	mov	r24, r29
    1acc:	9c 2f       	mov	r25, r28
    1ace:	df 91       	pop	r29
    1ad0:	cf 91       	pop	r28
    1ad2:	1f 91       	pop	r17
    1ad4:	0f 91       	pop	r16
    1ad6:	ff 90       	pop	r15
    1ad8:	ef 90       	pop	r14
    1ada:	df 90       	pop	r13
    1adc:	cf 90       	pop	r12
    1ade:	08 95       	ret

00001ae0 <fmin>:
    1ae0:	cf 92       	push	r12
    1ae2:	df 92       	push	r13
    1ae4:	ef 92       	push	r14
    1ae6:	ff 92       	push	r15
    1ae8:	0f 93       	push	r16
    1aea:	1f 93       	push	r17
    1aec:	cf 93       	push	r28
    1aee:	df 93       	push	r29
    1af0:	8b 01       	movw	r16, r22
    1af2:	d8 2f       	mov	r29, r24
    1af4:	c9 2f       	mov	r28, r25
    1af6:	69 01       	movw	r12, r18
    1af8:	7a 01       	movw	r14, r20
    1afa:	0e 94 5a 15 	call	0x2ab4	; 0x2ab4 <__cmpsf2>
    1afe:	87 fd       	sbrc	r24, 7
    1b00:	03 c0       	rjmp	.+6      	; 0x1b08 <fmin+0x28>
    1b02:	86 01       	movw	r16, r12
    1b04:	de 2d       	mov	r29, r14
    1b06:	cf 2d       	mov	r28, r15
    1b08:	b8 01       	movw	r22, r16
    1b0a:	8d 2f       	mov	r24, r29
    1b0c:	9c 2f       	mov	r25, r28
    1b0e:	df 91       	pop	r29
    1b10:	cf 91       	pop	r28
    1b12:	1f 91       	pop	r17
    1b14:	0f 91       	pop	r16
    1b16:	ff 90       	pop	r15
    1b18:	ef 90       	pop	r14
    1b1a:	df 90       	pop	r13
    1b1c:	cf 90       	pop	r12
    1b1e:	08 95       	ret

00001b20 <pid_init>:
    1b20:	8f 92       	push	r8
    1b22:	9f 92       	push	r9
    1b24:	af 92       	push	r10
    1b26:	bf 92       	push	r11
    1b28:	cf 92       	push	r12
    1b2a:	df 92       	push	r13
    1b2c:	ef 92       	push	r14
    1b2e:	ff 92       	push	r15
    1b30:	0f 93       	push	r16
    1b32:	1f 93       	push	r17
    1b34:	cf 93       	push	r28
    1b36:	df 93       	push	r29
    1b38:	cd b7       	in	r28, 0x3d	; 61
    1b3a:	de b7       	in	r29, 0x3e	; 62
    1b3c:	fc 01       	movw	r30, r24
    1b3e:	40 87       	std	Z+8, r20	; 0x08
    1b40:	51 87       	std	Z+9, r21	; 0x09
    1b42:	62 87       	std	Z+10, r22	; 0x0a
    1b44:	73 87       	std	Z+11, r23	; 0x0b
    1b46:	04 87       	std	Z+12, r16	; 0x0c
    1b48:	15 87       	std	Z+13, r17	; 0x0d
    1b4a:	26 87       	std	Z+14, r18	; 0x0e
    1b4c:	37 87       	std	Z+15, r19	; 0x0f
    1b4e:	c0 8a       	std	Z+16, r12	; 0x10
    1b50:	d1 8a       	std	Z+17, r13	; 0x11
    1b52:	e2 8a       	std	Z+18, r14	; 0x12
    1b54:	f3 8a       	std	Z+19, r15	; 0x13
    1b56:	8f 85       	ldd	r24, Y+15	; 0x0f
    1b58:	98 89       	ldd	r25, Y+16	; 0x10
    1b5a:	a9 89       	ldd	r26, Y+17	; 0x11
    1b5c:	ba 89       	ldd	r27, Y+18	; 0x12
    1b5e:	80 8f       	std	Z+24, r24	; 0x18
    1b60:	91 8f       	std	Z+25, r25	; 0x19
    1b62:	a2 8f       	std	Z+26, r26	; 0x1a
    1b64:	b3 8f       	std	Z+27, r27	; 0x1b
    1b66:	84 8a       	std	Z+20, r8	; 0x14
    1b68:	95 8a       	std	Z+21, r9	; 0x15
    1b6a:	a6 8a       	std	Z+22, r10	; 0x16
    1b6c:	b7 8a       	std	Z+23, r11	; 0x17
    1b6e:	10 82       	st	Z, r1
    1b70:	11 82       	std	Z+1, r1	; 0x01
    1b72:	12 82       	std	Z+2, r1	; 0x02
    1b74:	13 82       	std	Z+3, r1	; 0x03
    1b76:	14 82       	std	Z+4, r1	; 0x04
    1b78:	15 82       	std	Z+5, r1	; 0x05
    1b7a:	16 82       	std	Z+6, r1	; 0x06
    1b7c:	17 82       	std	Z+7, r1	; 0x07
    1b7e:	df 91       	pop	r29
    1b80:	cf 91       	pop	r28
    1b82:	1f 91       	pop	r17
    1b84:	0f 91       	pop	r16
    1b86:	ff 90       	pop	r15
    1b88:	ef 90       	pop	r14
    1b8a:	df 90       	pop	r13
    1b8c:	cf 90       	pop	r12
    1b8e:	bf 90       	pop	r11
    1b90:	af 90       	pop	r10
    1b92:	9f 90       	pop	r9
    1b94:	8f 90       	pop	r8
    1b96:	08 95       	ret

00001b98 <pid_set_params>:
    1b98:	8f 92       	push	r8
    1b9a:	9f 92       	push	r9
    1b9c:	af 92       	push	r10
    1b9e:	bf 92       	push	r11
    1ba0:	cf 92       	push	r12
    1ba2:	df 92       	push	r13
    1ba4:	ef 92       	push	r14
    1ba6:	ff 92       	push	r15
    1ba8:	0f 93       	push	r16
    1baa:	1f 93       	push	r17
    1bac:	cf 93       	push	r28
    1bae:	df 93       	push	r29
    1bb0:	cd b7       	in	r28, 0x3d	; 61
    1bb2:	de b7       	in	r29, 0x3e	; 62
    1bb4:	fc 01       	movw	r30, r24
    1bb6:	40 87       	std	Z+8, r20	; 0x08
    1bb8:	51 87       	std	Z+9, r21	; 0x09
    1bba:	62 87       	std	Z+10, r22	; 0x0a
    1bbc:	73 87       	std	Z+11, r23	; 0x0b
    1bbe:	04 87       	std	Z+12, r16	; 0x0c
    1bc0:	15 87       	std	Z+13, r17	; 0x0d
    1bc2:	26 87       	std	Z+14, r18	; 0x0e
    1bc4:	37 87       	std	Z+15, r19	; 0x0f
    1bc6:	c0 8a       	std	Z+16, r12	; 0x10
    1bc8:	d1 8a       	std	Z+17, r13	; 0x11
    1bca:	e2 8a       	std	Z+18, r14	; 0x12
    1bcc:	f3 8a       	std	Z+19, r15	; 0x13
    1bce:	8f 85       	ldd	r24, Y+15	; 0x0f
    1bd0:	98 89       	ldd	r25, Y+16	; 0x10
    1bd2:	a9 89       	ldd	r26, Y+17	; 0x11
    1bd4:	ba 89       	ldd	r27, Y+18	; 0x12
    1bd6:	80 8f       	std	Z+24, r24	; 0x18
    1bd8:	91 8f       	std	Z+25, r25	; 0x19
    1bda:	a2 8f       	std	Z+26, r26	; 0x1a
    1bdc:	b3 8f       	std	Z+27, r27	; 0x1b
    1bde:	84 8a       	std	Z+20, r8	; 0x14
    1be0:	95 8a       	std	Z+21, r9	; 0x15
    1be2:	a6 8a       	std	Z+22, r10	; 0x16
    1be4:	b7 8a       	std	Z+23, r11	; 0x17
    1be6:	10 82       	st	Z, r1
    1be8:	11 82       	std	Z+1, r1	; 0x01
    1bea:	12 82       	std	Z+2, r1	; 0x02
    1bec:	13 82       	std	Z+3, r1	; 0x03
    1bee:	14 82       	std	Z+4, r1	; 0x04
    1bf0:	15 82       	std	Z+5, r1	; 0x05
    1bf2:	16 82       	std	Z+6, r1	; 0x06
    1bf4:	17 82       	std	Z+7, r1	; 0x07
    1bf6:	df 91       	pop	r29
    1bf8:	cf 91       	pop	r28
    1bfa:	1f 91       	pop	r17
    1bfc:	0f 91       	pop	r16
    1bfe:	ff 90       	pop	r15
    1c00:	ef 90       	pop	r14
    1c02:	df 90       	pop	r13
    1c04:	cf 90       	pop	r12
    1c06:	bf 90       	pop	r11
    1c08:	af 90       	pop	r10
    1c0a:	9f 90       	pop	r9
    1c0c:	8f 90       	pop	r8
    1c0e:	08 95       	ret

00001c10 <pid_step>:
    1c10:	4f 92       	push	r4
    1c12:	5f 92       	push	r5
    1c14:	6f 92       	push	r6
    1c16:	7f 92       	push	r7
    1c18:	8f 92       	push	r8
    1c1a:	9f 92       	push	r9
    1c1c:	af 92       	push	r10
    1c1e:	bf 92       	push	r11
    1c20:	cf 92       	push	r12
    1c22:	df 92       	push	r13
    1c24:	ef 92       	push	r14
    1c26:	ff 92       	push	r15
    1c28:	0f 93       	push	r16
    1c2a:	1f 93       	push	r17
    1c2c:	cf 93       	push	r28
    1c2e:	df 93       	push	r29
    1c30:	cd b7       	in	r28, 0x3d	; 61
    1c32:	de b7       	in	r29, 0x3e	; 62
    1c34:	62 97       	sbiw	r28, 0x12	; 18
    1c36:	0f b6       	in	r0, 0x3f	; 63
    1c38:	f8 94       	cli
    1c3a:	de bf       	out	0x3e, r29	; 62
    1c3c:	0f be       	out	0x3f, r0	; 63
    1c3e:	cd bf       	out	0x3d, r28	; 61
    1c40:	9a 8b       	std	Y+18, r25	; 0x12
    1c42:	89 8b       	std	Y+17, r24	; 0x11
    1c44:	6a 01       	movw	r12, r20
    1c46:	7b 01       	movw	r14, r22
    1c48:	c9 01       	movw	r24, r18
    1c4a:	b8 01       	movw	r22, r16
    1c4c:	a7 01       	movw	r20, r14
    1c4e:	96 01       	movw	r18, r12
    1c50:	0e 94 ed 14 	call	0x29da	; 0x29da <__subsf3>
    1c54:	2b 01       	movw	r4, r22
    1c56:	3c 01       	movw	r6, r24
    1c58:	a9 89       	ldd	r26, Y+17	; 0x11
    1c5a:	ba 89       	ldd	r27, Y+18	; 0x12
    1c5c:	18 96       	adiw	r26, 0x08	; 8
    1c5e:	2d 91       	ld	r18, X+
    1c60:	3d 91       	ld	r19, X+
    1c62:	4d 91       	ld	r20, X+
    1c64:	5c 91       	ld	r21, X
    1c66:	1b 97       	sbiw	r26, 0x0b	; 11
    1c68:	0e 94 5a 17 	call	0x2eb4	; 0x2eb4 <__mulsf3>
    1c6c:	69 87       	std	Y+9, r22	; 0x09
    1c6e:	7a 87       	std	Y+10, r23	; 0x0a
    1c70:	8b 87       	std	Y+11, r24	; 0x0b
    1c72:	9c 87       	std	Y+12, r25	; 0x0c
    1c74:	a9 89       	ldd	r26, Y+17	; 0x11
    1c76:	ba 89       	ldd	r27, Y+18	; 0x12
    1c78:	1c 96       	adiw	r26, 0x0c	; 12
    1c7a:	8d 91       	ld	r24, X+
    1c7c:	9d 91       	ld	r25, X+
    1c7e:	0d 90       	ld	r0, X+
    1c80:	bc 91       	ld	r27, X
    1c82:	a0 2d       	mov	r26, r0
    1c84:	89 83       	std	Y+1, r24	; 0x01
    1c86:	9a 83       	std	Y+2, r25	; 0x02
    1c88:	ab 83       	std	Y+3, r26	; 0x03
    1c8a:	bc 83       	std	Y+4, r27	; 0x04
    1c8c:	e9 89       	ldd	r30, Y+17	; 0x11
    1c8e:	fa 89       	ldd	r31, Y+18	; 0x12
    1c90:	84 80       	ldd	r8, Z+4	; 0x04
    1c92:	95 80       	ldd	r9, Z+5	; 0x05
    1c94:	a6 80       	ldd	r10, Z+6	; 0x06
    1c96:	b7 80       	ldd	r11, Z+7	; 0x07
    1c98:	a5 01       	movw	r20, r10
    1c9a:	94 01       	movw	r18, r8
    1c9c:	c3 01       	movw	r24, r6
    1c9e:	b2 01       	movw	r22, r4
    1ca0:	0e 94 ee 14 	call	0x29dc	; 0x29dc <__addsf3>
    1ca4:	6d 87       	std	Y+13, r22	; 0x0d
    1ca6:	7e 87       	std	Y+14, r23	; 0x0e
    1ca8:	8f 87       	std	Y+15, r24	; 0x0f
    1caa:	98 8b       	std	Y+16, r25	; 0x10
    1cac:	a9 89       	ldd	r26, Y+17	; 0x11
    1cae:	ba 89       	ldd	r27, Y+18	; 0x12
    1cb0:	2d 91       	ld	r18, X+
    1cb2:	3d 91       	ld	r19, X+
    1cb4:	4d 91       	ld	r20, X+
    1cb6:	5c 91       	ld	r21, X
    1cb8:	c7 01       	movw	r24, r14
    1cba:	b6 01       	movw	r22, r12
    1cbc:	0e 94 ed 14 	call	0x29da	; 0x29da <__subsf3>
    1cc0:	e9 89       	ldd	r30, Y+17	; 0x11
    1cc2:	fa 89       	ldd	r31, Y+18	; 0x12
    1cc4:	20 89       	ldd	r18, Z+16	; 0x10
    1cc6:	31 89       	ldd	r19, Z+17	; 0x11
    1cc8:	42 89       	ldd	r20, Z+18	; 0x12
    1cca:	53 89       	ldd	r21, Z+19	; 0x13
    1ccc:	0e 94 5a 17 	call	0x2eb4	; 0x2eb4 <__mulsf3>
    1cd0:	2b 01       	movw	r4, r22
    1cd2:	3c 01       	movw	r6, r24
    1cd4:	a9 89       	ldd	r26, Y+17	; 0x11
    1cd6:	ba 89       	ldd	r27, Y+18	; 0x12
    1cd8:	cd 92       	st	X+, r12
    1cda:	dd 92       	st	X+, r13
    1cdc:	ed 92       	st	X+, r14
    1cde:	fc 92       	st	X, r15
    1ce0:	13 97       	sbiw	r26, 0x03	; 3
    1ce2:	2d 85       	ldd	r18, Y+13	; 0x0d
    1ce4:	3e 85       	ldd	r19, Y+14	; 0x0e
    1ce6:	4f 85       	ldd	r20, Y+15	; 0x0f
    1ce8:	58 89       	ldd	r21, Y+16	; 0x10
    1cea:	69 81       	ldd	r22, Y+1	; 0x01
    1cec:	7a 81       	ldd	r23, Y+2	; 0x02
    1cee:	8b 81       	ldd	r24, Y+3	; 0x03
    1cf0:	9c 81       	ldd	r25, Y+4	; 0x04
    1cf2:	0e 94 5a 17 	call	0x2eb4	; 0x2eb4 <__mulsf3>
    1cf6:	29 85       	ldd	r18, Y+9	; 0x09
    1cf8:	3a 85       	ldd	r19, Y+10	; 0x0a
    1cfa:	4b 85       	ldd	r20, Y+11	; 0x0b
    1cfc:	5c 85       	ldd	r21, Y+12	; 0x0c
    1cfe:	0e 94 ee 14 	call	0x29dc	; 0x29dc <__addsf3>
    1d02:	a3 01       	movw	r20, r6
    1d04:	92 01       	movw	r18, r4
    1d06:	0e 94 ee 14 	call	0x29dc	; 0x29dc <__addsf3>
    1d0a:	6b 01       	movw	r12, r22
    1d0c:	7c 01       	movw	r14, r24
    1d0e:	a9 89       	ldd	r26, Y+17	; 0x11
    1d10:	ba 89       	ldd	r27, Y+18	; 0x12
    1d12:	54 96       	adiw	r26, 0x14	; 20
    1d14:	8d 91       	ld	r24, X+
    1d16:	9d 91       	ld	r25, X+
    1d18:	0d 90       	ld	r0, X+
    1d1a:	bc 91       	ld	r27, X
    1d1c:	a0 2d       	mov	r26, r0
    1d1e:	8d 83       	std	Y+5, r24	; 0x05
    1d20:	9e 83       	std	Y+6, r25	; 0x06
    1d22:	af 83       	std	Y+7, r26	; 0x07
    1d24:	b8 87       	std	Y+8, r27	; 0x08
    1d26:	9c 01       	movw	r18, r24
    1d28:	ad 01       	movw	r20, r26
    1d2a:	c7 01       	movw	r24, r14
    1d2c:	b6 01       	movw	r22, r12
    1d2e:	0e 94 05 17 	call	0x2e0a	; 0x2e0a <__gesf2>
    1d32:	87 fd       	sbrc	r24, 7
    1d34:	0c c0       	rjmp	.+24     	; 0x1d4e <pid_step+0x13e>
    1d36:	e9 89       	ldd	r30, Y+17	; 0x11
    1d38:	fa 89       	ldd	r31, Y+18	; 0x12
    1d3a:	20 8d       	ldd	r18, Z+24	; 0x18
    1d3c:	31 8d       	ldd	r19, Z+25	; 0x19
    1d3e:	42 8d       	ldd	r20, Z+26	; 0x1a
    1d40:	53 8d       	ldd	r21, Z+27	; 0x1b
    1d42:	c7 01       	movw	r24, r14
    1d44:	b6 01       	movw	r22, r12
    1d46:	0e 94 5a 15 	call	0x2ab4	; 0x2ab4 <__cmpsf2>
    1d4a:	18 16       	cp	r1, r24
    1d4c:	d4 f5       	brge	.+116    	; 0x1dc2 <pid_step+0x1b2>
    1d4e:	a9 89       	ldd	r26, Y+17	; 0x11
    1d50:	ba 89       	ldd	r27, Y+18	; 0x12
    1d52:	58 96       	adiw	r26, 0x18	; 24
    1d54:	cd 90       	ld	r12, X+
    1d56:	dd 90       	ld	r13, X+
    1d58:	ed 90       	ld	r14, X+
    1d5a:	fc 90       	ld	r15, X
    1d5c:	5b 97       	sbiw	r26, 0x1b	; 27
    1d5e:	a5 01       	movw	r20, r10
    1d60:	94 01       	movw	r18, r8
    1d62:	69 81       	ldd	r22, Y+1	; 0x01
    1d64:	7a 81       	ldd	r23, Y+2	; 0x02
    1d66:	8b 81       	ldd	r24, Y+3	; 0x03
    1d68:	9c 81       	ldd	r25, Y+4	; 0x04
    1d6a:	0e 94 5a 17 	call	0x2eb4	; 0x2eb4 <__mulsf3>
    1d6e:	29 85       	ldd	r18, Y+9	; 0x09
    1d70:	3a 85       	ldd	r19, Y+10	; 0x0a
    1d72:	4b 85       	ldd	r20, Y+11	; 0x0b
    1d74:	5c 85       	ldd	r21, Y+12	; 0x0c
    1d76:	0e 94 ee 14 	call	0x29dc	; 0x29dc <__addsf3>
    1d7a:	a3 01       	movw	r20, r6
    1d7c:	92 01       	movw	r18, r4
    1d7e:	0e 94 ee 14 	call	0x29dc	; 0x29dc <__addsf3>
    1d82:	a7 01       	movw	r20, r14
    1d84:	96 01       	movw	r18, r12
    1d86:	0e 94 70 0d 	call	0x1ae0	; 0x1ae0 <fmin>
    1d8a:	2d 81       	ldd	r18, Y+5	; 0x05
    1d8c:	3e 81       	ldd	r19, Y+6	; 0x06
    1d8e:	4f 81       	ldd	r20, Y+7	; 0x07
    1d90:	58 85       	ldd	r21, Y+8	; 0x08
    1d92:	62 96       	adiw	r28, 0x12	; 18
    1d94:	0f b6       	in	r0, 0x3f	; 63
    1d96:	f8 94       	cli
    1d98:	de bf       	out	0x3e, r29	; 62
    1d9a:	0f be       	out	0x3f, r0	; 63
    1d9c:	cd bf       	out	0x3d, r28	; 61
    1d9e:	df 91       	pop	r29
    1da0:	cf 91       	pop	r28
    1da2:	1f 91       	pop	r17
    1da4:	0f 91       	pop	r16
    1da6:	ff 90       	pop	r15
    1da8:	ef 90       	pop	r14
    1daa:	df 90       	pop	r13
    1dac:	cf 90       	pop	r12
    1dae:	bf 90       	pop	r11
    1db0:	af 90       	pop	r10
    1db2:	9f 90       	pop	r9
    1db4:	8f 90       	pop	r8
    1db6:	7f 90       	pop	r7
    1db8:	6f 90       	pop	r6
    1dba:	5f 90       	pop	r5
    1dbc:	4f 90       	pop	r4
    1dbe:	0c 94 50 0d 	jmp	0x1aa0	; 0x1aa0 <fmax>
    1dc2:	8d 85       	ldd	r24, Y+13	; 0x0d
    1dc4:	9e 85       	ldd	r25, Y+14	; 0x0e
    1dc6:	af 85       	ldd	r26, Y+15	; 0x0f
    1dc8:	b8 89       	ldd	r27, Y+16	; 0x10
    1dca:	e9 89       	ldd	r30, Y+17	; 0x11
    1dcc:	fa 89       	ldd	r31, Y+18	; 0x12
    1dce:	84 83       	std	Z+4, r24	; 0x04
    1dd0:	95 83       	std	Z+5, r25	; 0x05
    1dd2:	a6 83       	std	Z+6, r26	; 0x06
    1dd4:	b7 83       	std	Z+7, r27	; 0x07
    1dd6:	c7 01       	movw	r24, r14
    1dd8:	b6 01       	movw	r22, r12
    1dda:	62 96       	adiw	r28, 0x12	; 18
    1ddc:	0f b6       	in	r0, 0x3f	; 63
    1dde:	f8 94       	cli
    1de0:	de bf       	out	0x3e, r29	; 62
    1de2:	0f be       	out	0x3f, r0	; 63
    1de4:	cd bf       	out	0x3d, r28	; 61
    1de6:	df 91       	pop	r29
    1de8:	cf 91       	pop	r28
    1dea:	1f 91       	pop	r17
    1dec:	0f 91       	pop	r16
    1dee:	ff 90       	pop	r15
    1df0:	ef 90       	pop	r14
    1df2:	df 90       	pop	r13
    1df4:	cf 90       	pop	r12
    1df6:	bf 90       	pop	r11
    1df8:	af 90       	pop	r10
    1dfa:	9f 90       	pop	r9
    1dfc:	8f 90       	pop	r8
    1dfe:	7f 90       	pop	r7
    1e00:	6f 90       	pop	r6
    1e02:	5f 90       	pop	r5
    1e04:	4f 90       	pop	r4
    1e06:	08 95       	ret

00001e08 <pid_reset>:
    1e08:	fc 01       	movw	r30, r24
    1e0a:	10 82       	st	Z, r1
    1e0c:	11 82       	std	Z+1, r1	; 0x01
    1e0e:	12 82       	std	Z+2, r1	; 0x02
    1e10:	13 82       	std	Z+3, r1	; 0x03
    1e12:	14 82       	std	Z+4, r1	; 0x04
    1e14:	15 82       	std	Z+5, r1	; 0x05
    1e16:	16 82       	std	Z+6, r1	; 0x06
    1e18:	17 82       	std	Z+7, r1	; 0x07
    1e1a:	08 95       	ret

00001e1c <rotenc_init>:
    1e1c:	84 b1       	in	r24, 0x04	; 4
    1e1e:	83 7f       	andi	r24, 0xF3	; 243
    1e20:	84 b9       	out	0x04, r24	; 4
    1e22:	85 b1       	in	r24, 0x05	; 5
    1e24:	8c 60       	ori	r24, 0x0C	; 12
    1e26:	85 b9       	out	0x05, r24	; 5
    1e28:	10 92 0f 01 	sts	0x010F, r1	; 0x80010f <__data_end+0x1>
    1e2c:	10 92 0e 01 	sts	0x010E, r1	; 0x80010e <__data_end>
    1e30:	1a 99       	sbic	0x03, 2	; 3
    1e32:	03 c0       	rjmp	.+6      	; 0x1e3a <rotenc_init+0x1e>
    1e34:	82 e0       	ldi	r24, 0x02	; 2
    1e36:	80 93 10 01 	sts	0x0110, r24	; 0x800110 <rotenc_last>
    1e3a:	1b 99       	sbic	0x03, 3	; 3
    1e3c:	05 c0       	rjmp	.+10     	; 0x1e48 <rotenc_init+0x2c>
    1e3e:	80 91 10 01 	lds	r24, 0x0110	; 0x800110 <rotenc_last>
    1e42:	81 60       	ori	r24, 0x01	; 1
    1e44:	80 93 10 01 	sts	0x0110, r24	; 0x800110 <rotenc_last>
    1e48:	08 95       	ret

00001e4a <rotenc_shutdown>:
    1e4a:	10 92 0f 01 	sts	0x010F, r1	; 0x80010f <__data_end+0x1>
    1e4e:	10 92 0e 01 	sts	0x010E, r1	; 0x80010e <__data_end>
    1e52:	85 b1       	in	r24, 0x05	; 5
    1e54:	83 7f       	andi	r24, 0xF3	; 243
    1e56:	85 b9       	out	0x05, r24	; 5
    1e58:	08 95       	ret

00001e5a <rotenc_get_inc>:
    1e5a:	2f b7       	in	r18, 0x3f	; 63
    1e5c:	f8 94       	cli
    1e5e:	80 91 0e 01 	lds	r24, 0x010E	; 0x80010e <__data_end>
    1e62:	90 91 0f 01 	lds	r25, 0x010F	; 0x80010f <__data_end+0x1>
    1e66:	10 92 0f 01 	sts	0x010F, r1	; 0x80010f <__data_end+0x1>
    1e6a:	10 92 0e 01 	sts	0x010E, r1	; 0x80010e <__data_end>
    1e6e:	2f bf       	out	0x3f, r18	; 63
    1e70:	08 95       	ret

00001e72 <rotenc_update>:
    1e72:	80 91 10 01 	lds	r24, 0x0110	; 0x800110 <rotenc_last>
    1e76:	24 e0       	ldi	r18, 0x04	; 4
    1e78:	82 9f       	mul	r24, r18
    1e7a:	c0 01       	movw	r24, r0
    1e7c:	11 24       	eor	r1, r1
    1e7e:	8f 70       	andi	r24, 0x0F	; 15
    1e80:	80 93 10 01 	sts	0x0110, r24	; 0x800110 <rotenc_last>
    1e84:	1a 99       	sbic	0x03, 2	; 3
    1e86:	05 c0       	rjmp	.+10     	; 0x1e92 <rotenc_update+0x20>
    1e88:	80 91 10 01 	lds	r24, 0x0110	; 0x800110 <rotenc_last>
    1e8c:	82 60       	ori	r24, 0x02	; 2
    1e8e:	80 93 10 01 	sts	0x0110, r24	; 0x800110 <rotenc_last>
    1e92:	1b 99       	sbic	0x03, 3	; 3
    1e94:	05 c0       	rjmp	.+10     	; 0x1ea0 <rotenc_update+0x2e>
    1e96:	80 91 10 01 	lds	r24, 0x0110	; 0x800110 <rotenc_last>
    1e9a:	81 60       	ori	r24, 0x01	; 1
    1e9c:	80 93 10 01 	sts	0x0110, r24	; 0x800110 <rotenc_last>
    1ea0:	e0 91 10 01 	lds	r30, 0x0110	; 0x800110 <rotenc_last>
    1ea4:	f0 e0       	ldi	r31, 0x00	; 0
    1ea6:	ee 0f       	add	r30, r30
    1ea8:	ff 1f       	adc	r31, r31
    1eaa:	ea 52       	subi	r30, 0x2A	; 42
    1eac:	ff 4f       	sbci	r31, 0xFF	; 255
    1eae:	25 91       	lpm	r18, Z+
    1eb0:	34 91       	lpm	r19, Z
    1eb2:	80 91 0e 01 	lds	r24, 0x010E	; 0x80010e <__data_end>
    1eb6:	90 91 0f 01 	lds	r25, 0x010F	; 0x80010f <__data_end+0x1>
    1eba:	82 0f       	add	r24, r18
    1ebc:	93 1f       	adc	r25, r19
    1ebe:	90 93 0f 01 	sts	0x010F, r25	; 0x80010f <__data_end+0x1>
    1ec2:	80 93 0e 01 	sts	0x010E, r24	; 0x80010e <__data_end>
    1ec6:	60 91 0e 01 	lds	r22, 0x010E	; 0x80010e <__data_end>
    1eca:	70 91 0f 01 	lds	r23, 0x010F	; 0x80010f <__data_end+0x1>
    1ece:	88 ee       	ldi	r24, 0xE8	; 232
    1ed0:	93 e0       	ldi	r25, 0x03	; 3
    1ed2:	0e 94 40 0d 	call	0x1a80	; 0x1a80 <imin16>
    1ed6:	bc 01       	movw	r22, r24
    1ed8:	88 e1       	ldi	r24, 0x18	; 24
    1eda:	9c ef       	ldi	r25, 0xFC	; 252
    1edc:	0e 94 35 0d 	call	0x1a6a	; 0x1a6a <imax16>
    1ee0:	90 93 0f 01 	sts	0x010F, r25	; 0x80010f <__data_end+0x1>
    1ee4:	80 93 0e 01 	sts	0x010E, r24	; 0x80010e <__data_end>
    1ee8:	08 95       	ret

00001eea <shreg_clear>:
    1eea:	2c 98       	cbi	0x05, 4	; 5
    1eec:	2c 9a       	sbi	0x05, 4	; 5
    1eee:	08 95       	ret

00001ef0 <shreg_shift>:
    1ef0:	2d 9a       	sbi	0x05, 5	; 5
    1ef2:	2d 98       	cbi	0x05, 5	; 5
    1ef4:	08 95       	ret

00001ef6 <shreg_write_bit>:
    1ef6:	80 fd       	sbrc	r24, 0
    1ef8:	2f 9a       	sbi	0x05, 7	; 5
    1efa:	80 ff       	sbrs	r24, 0
    1efc:	2f 98       	cbi	0x05, 7	; 5
    1efe:	0c 94 78 0f 	jmp	0x1ef0	; 0x1ef0 <shreg_shift>

00001f02 <shreg_write_byte>:
    1f02:	0f 93       	push	r16
    1f04:	1f 93       	push	r17
    1f06:	cf 93       	push	r28
    1f08:	df 93       	push	r29
    1f0a:	c0 e0       	ldi	r28, 0x00	; 0
    1f0c:	d0 e0       	ldi	r29, 0x00	; 0
    1f0e:	08 2f       	mov	r16, r24
    1f10:	10 e0       	ldi	r17, 0x00	; 0
    1f12:	c8 01       	movw	r24, r16
    1f14:	0c 2e       	mov	r0, r28
    1f16:	02 c0       	rjmp	.+4      	; 0x1f1c <shreg_write_byte+0x1a>
    1f18:	95 95       	asr	r25
    1f1a:	87 95       	ror	r24
    1f1c:	0a 94       	dec	r0
    1f1e:	e2 f7       	brpl	.-8      	; 0x1f18 <shreg_write_byte+0x16>
    1f20:	81 70       	andi	r24, 0x01	; 1
    1f22:	0e 94 7b 0f 	call	0x1ef6	; 0x1ef6 <shreg_write_bit>
    1f26:	21 96       	adiw	r28, 0x01	; 1
    1f28:	c8 30       	cpi	r28, 0x08	; 8
    1f2a:	d1 05       	cpc	r29, r1
    1f2c:	91 f7       	brne	.-28     	; 0x1f12 <shreg_write_byte+0x10>
    1f2e:	df 91       	pop	r29
    1f30:	cf 91       	pop	r28
    1f32:	1f 91       	pop	r17
    1f34:	0f 91       	pop	r16
    1f36:	08 95       	ret

00001f38 <shreg_write_bytes>:
    1f38:	0f 93       	push	r16
    1f3a:	1f 93       	push	r17
    1f3c:	cf 93       	push	r28
    1f3e:	df 93       	push	r29
    1f40:	8c 01       	movw	r16, r24
    1f42:	c6 2f       	mov	r28, r22
    1f44:	d0 e0       	ldi	r29, 0x00	; 0
    1f46:	c8 0f       	add	r28, r24
    1f48:	d9 1f       	adc	r29, r25
    1f4a:	c0 17       	cp	r28, r16
    1f4c:	d1 07       	cpc	r29, r17
    1f4e:	29 f0       	breq	.+10     	; 0x1f5a <shreg_write_bytes+0x22>
    1f50:	21 97       	sbiw	r28, 0x01	; 1
    1f52:	88 81       	ld	r24, Y
    1f54:	0e 94 81 0f 	call	0x1f02	; 0x1f02 <shreg_write_byte>
    1f58:	f8 cf       	rjmp	.-16     	; 0x1f4a <shreg_write_bytes+0x12>
    1f5a:	df 91       	pop	r29
    1f5c:	cf 91       	pop	r28
    1f5e:	1f 91       	pop	r17
    1f60:	0f 91       	pop	r16
    1f62:	08 95       	ret

00001f64 <shreg_out>:
    1f64:	2e 9a       	sbi	0x05, 6	; 5
    1f66:	2e 98       	cbi	0x05, 6	; 5
    1f68:	08 95       	ret

00001f6a <shreg_init>:
    1f6a:	84 b1       	in	r24, 0x04	; 4
    1f6c:	80 6f       	ori	r24, 0xF0	; 240
    1f6e:	84 b9       	out	0x04, r24	; 4
    1f70:	85 b1       	in	r24, 0x05	; 5
    1f72:	8f 71       	andi	r24, 0x1F	; 31
    1f74:	85 b9       	out	0x05, r24	; 5
    1f76:	2c 9a       	sbi	0x05, 4	; 5
    1f78:	0e 94 75 0f 	call	0x1eea	; 0x1eea <shreg_clear>
    1f7c:	0c 94 b2 0f 	jmp	0x1f64	; 0x1f64 <shreg_out>

00001f80 <shreg_shutdown>:
    1f80:	0e 94 75 0f 	call	0x1eea	; 0x1eea <shreg_clear>
    1f84:	0c 94 b2 0f 	jmp	0x1f64	; 0x1f64 <shreg_out>

00001f88 <srd_signed_int16_to_patterns>:
    1f88:	9f 92       	push	r9
    1f8a:	af 92       	push	r10
    1f8c:	bf 92       	push	r11
    1f8e:	cf 92       	push	r12
    1f90:	df 92       	push	r13
    1f92:	ef 92       	push	r14
    1f94:	ff 92       	push	r15
    1f96:	0f 93       	push	r16
    1f98:	1f 93       	push	r17
    1f9a:	cf 93       	push	r28
    1f9c:	df 93       	push	r29
    1f9e:	ec 01       	movw	r28, r24
    1fa0:	96 2e       	mov	r9, r22
    1fa2:	8a 01       	movw	r16, r20
    1fa4:	66 23       	and	r22, r22
    1fa6:	19 f0       	breq	.+6      	; 0x1fae <srd_signed_int16_to_patterns+0x26>
    1fa8:	d1 95       	neg	r29
    1faa:	c1 95       	neg	r28
    1fac:	d1 09       	sbc	r29, r1
    1fae:	20 97       	sbiw	r28, 0x00	; 0
    1fb0:	59 f0       	breq	.+22     	; 0x1fc8 <srd_signed_int16_to_patterns+0x40>
    1fb2:	30 e0       	ldi	r19, 0x00	; 0
    1fb4:	e2 2e       	mov	r14, r18
    1fb6:	f1 2c       	mov	r15, r1
    1fb8:	57 01       	movw	r10, r14
    1fba:	61 e0       	ldi	r22, 0x01	; 1
    1fbc:	a6 1a       	sub	r10, r22
    1fbe:	b1 08       	sbc	r11, r1
    1fc0:	8a e0       	ldi	r24, 0x0A	; 10
    1fc2:	c8 2e       	mov	r12, r24
    1fc4:	d1 2c       	mov	r13, r1
    1fc6:	2e c0       	rjmp	.+92     	; 0x2024 <srd_signed_int16_to_patterns+0x9c>
    1fc8:	f8 01       	movw	r30, r16
    1fca:	e2 0f       	add	r30, r18
    1fcc:	f1 1d       	adc	r31, r1
    1fce:	31 97       	sbiw	r30, 0x01	; 1
    1fd0:	8f e3       	ldi	r24, 0x3F	; 63
    1fd2:	80 83       	st	Z, r24
    1fd4:	31 e0       	ldi	r19, 0x01	; 1
    1fd6:	2c c0       	rjmp	.+88     	; 0x2030 <srd_signed_int16_to_patterns+0xa8>
    1fd8:	83 2f       	mov	r24, r19
    1fda:	90 e0       	ldi	r25, 0x00	; 0
    1fdc:	41 e0       	ldi	r20, 0x01	; 1
    1fde:	50 e0       	ldi	r21, 0x00	; 0
    1fe0:	91 10       	cpse	r9, r1
    1fe2:	02 c0       	rjmp	.+4      	; 0x1fe8 <srd_signed_int16_to_patterns+0x60>
    1fe4:	40 e0       	ldi	r20, 0x00	; 0
    1fe6:	50 e0       	ldi	r21, 0x00	; 0
    1fe8:	b7 01       	movw	r22, r14
    1fea:	64 1b       	sub	r22, r20
    1fec:	75 0b       	sbc	r23, r21
    1fee:	86 17       	cp	r24, r22
    1ff0:	97 07       	cpc	r25, r23
    1ff2:	f4 f4       	brge	.+60     	; 0x2030 <srd_signed_int16_to_patterns+0xa8>
    1ff4:	3f 5f       	subi	r19, 0xFF	; 255
    1ff6:	f5 01       	movw	r30, r10
    1ff8:	e8 1b       	sub	r30, r24
    1ffa:	f9 0b       	sbc	r31, r25
    1ffc:	e0 0f       	add	r30, r16
    1ffe:	f1 1f       	adc	r31, r17
    2000:	ce 01       	movw	r24, r28
    2002:	b6 01       	movw	r22, r12
    2004:	0e 94 10 18 	call	0x3020	; 0x3020 <__divmodhi4>
    2008:	81 50       	subi	r24, 0x01	; 1
    200a:	89 30       	cpi	r24, 0x09	; 9
    200c:	78 f4       	brcc	.+30     	; 0x202c <srd_signed_int16_to_patterns+0xa4>
    200e:	a8 2f       	mov	r26, r24
    2010:	b0 e0       	ldi	r27, 0x00	; 0
    2012:	ac 5f       	subi	r26, 0xFC	; 252
    2014:	be 4f       	sbci	r27, 0xFE	; 254
    2016:	8c 91       	ld	r24, X
    2018:	80 83       	st	Z, r24
    201a:	ce 01       	movw	r24, r28
    201c:	b6 01       	movw	r22, r12
    201e:	0e 94 10 18 	call	0x3020	; 0x3020 <__divmodhi4>
    2022:	eb 01       	movw	r28, r22
    2024:	1c 16       	cp	r1, r28
    2026:	1d 06       	cpc	r1, r29
    2028:	bc f2       	brlt	.-82     	; 0x1fd8 <srd_signed_int16_to_patterns+0x50>
    202a:	02 c0       	rjmp	.+4      	; 0x2030 <srd_signed_int16_to_patterns+0xa8>
    202c:	8f e3       	ldi	r24, 0x3F	; 63
    202e:	f4 cf       	rjmp	.-24     	; 0x2018 <srd_signed_int16_to_patterns+0x90>
    2030:	99 20       	and	r9, r9
    2032:	49 f0       	breq	.+18     	; 0x2046 <srd_signed_int16_to_patterns+0xbe>
    2034:	e2 2f       	mov	r30, r18
    2036:	f0 e0       	ldi	r31, 0x00	; 0
    2038:	31 97       	sbiw	r30, 0x01	; 1
    203a:	e3 1b       	sub	r30, r19
    203c:	f1 09       	sbc	r31, r1
    203e:	e0 0f       	add	r30, r16
    2040:	f1 1f       	adc	r31, r17
    2042:	80 e4       	ldi	r24, 0x40	; 64
    2044:	80 83       	st	Z, r24
    2046:	81 e0       	ldi	r24, 0x01	; 1
    2048:	df 91       	pop	r29
    204a:	cf 91       	pop	r28
    204c:	1f 91       	pop	r17
    204e:	0f 91       	pop	r16
    2050:	ff 90       	pop	r15
    2052:	ef 90       	pop	r14
    2054:	df 90       	pop	r13
    2056:	cf 90       	pop	r12
    2058:	bf 90       	pop	r11
    205a:	af 90       	pop	r10
    205c:	9f 90       	pop	r9
    205e:	08 95       	ret

00002060 <srd_shutdown>:
    2060:	0c 94 c0 0f 	jmp	0x1f80	; 0x1f80 <shreg_shutdown>

00002064 <srd_set>:
    2064:	86 30       	cpi	r24, 0x06	; 6
    2066:	38 f4       	brcc	.+14     	; 0x2076 <srd_set+0x12>
    2068:	e8 2f       	mov	r30, r24
    206a:	f0 e0       	ldi	r31, 0x00	; 0
    206c:	ef 5e       	subi	r30, 0xEF	; 239
    206e:	fe 4f       	sbci	r31, 0xFE	; 254
    2070:	60 83       	st	Z, r22
    2072:	81 e0       	ldi	r24, 0x01	; 1
    2074:	08 95       	ret
    2076:	80 e0       	ldi	r24, 0x00	; 0
    2078:	08 95       	ret

0000207a <srd_setfloat>:
    207a:	2f 92       	push	r2
    207c:	3f 92       	push	r3
    207e:	4f 92       	push	r4
    2080:	5f 92       	push	r5
    2082:	6f 92       	push	r6
    2084:	7f 92       	push	r7
    2086:	8f 92       	push	r8
    2088:	9f 92       	push	r9
    208a:	af 92       	push	r10
    208c:	bf 92       	push	r11
    208e:	cf 92       	push	r12
    2090:	df 92       	push	r13
    2092:	ef 92       	push	r14
    2094:	ff 92       	push	r15
    2096:	0f 93       	push	r16
    2098:	1f 93       	push	r17
    209a:	cf 93       	push	r28
    209c:	df 93       	push	r29
    209e:	cd b7       	in	r28, 0x3d	; 61
    20a0:	de b7       	in	r29, 0x3e	; 62
    20a2:	28 97       	sbiw	r28, 0x08	; 8
    20a4:	0f b6       	in	r0, 0x3f	; 63
    20a6:	f8 94       	cli
    20a8:	de bf       	out	0x3e, r29	; 62
    20aa:	0f be       	out	0x3f, r0	; 63
    20ac:	cd bf       	out	0x3d, r28	; 61
    20ae:	e4 2f       	mov	r30, r20
    20b0:	f0 e0       	ldi	r31, 0x00	; 0
    20b2:	fa 83       	std	Y+2, r31	; 0x02
    20b4:	e9 83       	std	Y+1, r30	; 0x01
    20b6:	10 e0       	ldi	r17, 0x00	; 0
    20b8:	af 01       	movw	r20, r30
    20ba:	40 0f       	add	r20, r16
    20bc:	51 1f       	adc	r21, r17
    20be:	47 30       	cpi	r20, 0x07	; 7
    20c0:	51 05       	cpc	r21, r1
    20c2:	14 f0       	brlt	.+4      	; 0x20c8 <srd_setfloat+0x4e>
    20c4:	80 e0       	ldi	r24, 0x00	; 0
    20c6:	b3 c0       	rjmp	.+358    	; 0x222e <srd_setfloat+0x1b4>
    20c8:	2c 83       	std	Y+4, r18	; 0x04
    20ca:	6b 01       	movw	r12, r22
    20cc:	7c 01       	movw	r14, r24
    20ce:	20 e0       	ldi	r18, 0x00	; 0
    20d0:	30 e0       	ldi	r19, 0x00	; 0
    20d2:	a9 01       	movw	r20, r18
    20d4:	0e 94 5a 15 	call	0x2ab4	; 0x2ab4 <__cmpsf2>
    20d8:	88 1f       	adc	r24, r24
    20da:	88 27       	eor	r24, r24
    20dc:	88 1f       	adc	r24, r24
    20de:	8b 83       	std	Y+3, r24	; 0x03
    20e0:	c7 01       	movw	r24, r14
    20e2:	b6 01       	movw	r22, r12
    20e4:	0e 94 0d 16 	call	0x2c1a	; 0x2c1a <__fixsfsi>
    20e8:	4b 01       	movw	r8, r22
    20ea:	5c 01       	movw	r10, r24
    20ec:	7e 83       	std	Y+6, r23	; 0x06
    20ee:	6d 83       	std	Y+5, r22	; 0x05
    20f0:	5c 81       	ldd	r21, Y+4	; 0x04
    20f2:	45 2f       	mov	r20, r21
    20f4:	50 e0       	ldi	r21, 0x00	; 0
    20f6:	58 87       	std	Y+8, r21	; 0x08
    20f8:	4f 83       	std	Y+7, r20	; 0x07
    20fa:	ca 01       	movw	r24, r20
    20fc:	0e 94 1d 0d 	call	0x1a3a	; 0x1a3a <decpowi16>
    2100:	1c 01       	movw	r2, r24
    2102:	b4 01       	movw	r22, r8
    2104:	09 2c       	mov	r0, r9
    2106:	00 0c       	add	r0, r0
    2108:	88 0b       	sbc	r24, r24
    210a:	99 0b       	sbc	r25, r25
    210c:	0e 94 45 16 	call	0x2c8a	; 0x2c8a <__floatsisf>
    2110:	9b 01       	movw	r18, r22
    2112:	ac 01       	movw	r20, r24
    2114:	c7 01       	movw	r24, r14
    2116:	b6 01       	movw	r22, r12
    2118:	0e 94 ed 14 	call	0x29da	; 0x29da <__subsf3>
    211c:	2b 01       	movw	r4, r22
    211e:	3c 01       	movw	r6, r24
    2120:	e8 94       	clt
    2122:	77 f8       	bld	r7, 7
    2124:	b1 01       	movw	r22, r2
    2126:	33 0c       	add	r3, r3
    2128:	88 0b       	sbc	r24, r24
    212a:	99 0b       	sbc	r25, r25
    212c:	0e 94 45 16 	call	0x2c8a	; 0x2c8a <__floatsisf>
    2130:	9b 01       	movw	r18, r22
    2132:	ac 01       	movw	r20, r24
    2134:	c3 01       	movw	r24, r6
    2136:	b2 01       	movw	r22, r4
    2138:	0e 94 5a 17 	call	0x2eb4	; 0x2eb4 <__mulsf3>
    213c:	0e 94 0d 16 	call	0x2c1a	; 0x2c1a <__fixsfsi>
    2140:	56 2e       	mov	r5, r22
    2142:	77 2e       	mov	r7, r23
    2144:	86 2f       	mov	r24, r22
    2146:	97 2d       	mov	r25, r7
    2148:	1c 01       	movw	r2, r24
    214a:	8d 81       	ldd	r24, Y+5	; 0x05
    214c:	9e 81       	ldd	r25, Y+6	; 0x06
    214e:	89 2b       	or	r24, r25
    2150:	69 f4       	brne	.+26     	; 0x216c <srd_setfloat+0xf2>
    2152:	20 e0       	ldi	r18, 0x00	; 0
    2154:	30 e0       	ldi	r19, 0x00	; 0
    2156:	a9 01       	movw	r20, r18
    2158:	c7 01       	movw	r24, r14
    215a:	b6 01       	movw	r22, r12
    215c:	0e 94 5a 15 	call	0x2ab4	; 0x2ab4 <__cmpsf2>
    2160:	68 2e       	mov	r6, r24
    2162:	66 1c       	adc	r6, r6
    2164:	66 24       	eor	r6, r6
    2166:	66 1c       	adc	r6, r6
    2168:	63 94       	inc	r6
    216a:	0b c0       	rjmp	.+22     	; 0x2182 <srd_setfloat+0x108>
    216c:	6b 80       	ldd	r6, Y+3	; 0x03
    216e:	c4 01       	movw	r24, r8
    2170:	2a e0       	ldi	r18, 0x0A	; 10
    2172:	30 e0       	ldi	r19, 0x00	; 0
    2174:	b9 01       	movw	r22, r18
    2176:	0e 94 10 18 	call	0x3020	; 0x3020 <__divmodhi4>
    217a:	cb 01       	movw	r24, r22
    217c:	63 94       	inc	r6
    217e:	00 97       	sbiw	r24, 0x00	; 0
    2180:	c9 f7       	brne	.-14     	; 0x2174 <srd_setfloat+0xfa>
    2182:	23 28       	or	r2, r3
    2184:	81 f0       	breq	.+32     	; 0x21a6 <srd_setfloat+0x12c>
    2186:	47 2c       	mov	r4, r7
    2188:	44 1c       	adc	r4, r4
    218a:	44 24       	eor	r4, r4
    218c:	44 1c       	adc	r4, r4
    218e:	85 2d       	mov	r24, r5
    2190:	97 2d       	mov	r25, r7
    2192:	2a e0       	ldi	r18, 0x0A	; 10
    2194:	30 e0       	ldi	r19, 0x00	; 0
    2196:	b9 01       	movw	r22, r18
    2198:	0e 94 10 18 	call	0x3020	; 0x3020 <__divmodhi4>
    219c:	cb 01       	movw	r24, r22
    219e:	43 94       	inc	r4
    21a0:	00 97       	sbiw	r24, 0x00	; 0
    21a2:	c9 f7       	brne	.-14     	; 0x2196 <srd_setfloat+0x11c>
    21a4:	02 c0       	rjmp	.+4      	; 0x21aa <srd_setfloat+0x130>
    21a6:	44 24       	eor	r4, r4
    21a8:	43 94       	inc	r4
    21aa:	26 2c       	mov	r2, r6
    21ac:	31 2c       	mov	r3, r1
    21ae:	8f 81       	ldd	r24, Y+7	; 0x07
    21b0:	98 85       	ldd	r25, Y+8	; 0x08
    21b2:	82 0d       	add	r24, r2
    21b4:	93 1d       	adc	r25, r3
    21b6:	08 17       	cp	r16, r24
    21b8:	19 07       	cpc	r17, r25
    21ba:	0c f4       	brge	.+2      	; 0x21be <srd_setfloat+0x144>
    21bc:	83 cf       	rjmp	.-250    	; 0x20c4 <srd_setfloat+0x4a>
    21be:	e9 81       	ldd	r30, Y+1	; 0x01
    21c0:	fa 81       	ldd	r31, Y+2	; 0x02
    21c2:	ef 5e       	subi	r30, 0xEF	; 239
    21c4:	fe 4f       	sbci	r31, 0xFE	; 254
    21c6:	6f 01       	movw	r12, r30
    21c8:	4f 81       	ldd	r20, Y+7	; 0x07
    21ca:	58 85       	ldd	r21, Y+8	; 0x08
    21cc:	04 1b       	sub	r16, r20
    21ce:	15 0b       	sbc	r17, r21
    21d0:	7f 01       	movw	r14, r30
    21d2:	e0 0e       	add	r14, r16
    21d4:	f1 1e       	adc	r15, r17
    21d6:	2c 81       	ldd	r18, Y+4	; 0x04
    21d8:	a7 01       	movw	r20, r14
    21da:	60 e0       	ldi	r22, 0x00	; 0
    21dc:	85 2d       	mov	r24, r5
    21de:	97 2d       	mov	r25, r7
    21e0:	0e 94 c4 0f 	call	0x1f88	; 0x1f88 <srd_signed_int16_to_patterns>
    21e4:	f7 01       	movw	r30, r14
    21e6:	8f 81       	ldd	r24, Y+7	; 0x07
    21e8:	98 85       	ldd	r25, Y+8	; 0x08
    21ea:	84 19       	sub	r24, r4
    21ec:	91 09       	sbc	r25, r1
    21ee:	9a 83       	std	Y+2, r25	; 0x02
    21f0:	89 83       	std	Y+1, r24	; 0x01
    21f2:	2f e3       	ldi	r18, 0x3F	; 63
    21f4:	cf 01       	movw	r24, r30
    21f6:	8e 19       	sub	r24, r14
    21f8:	9f 09       	sbc	r25, r15
    21fa:	49 81       	ldd	r20, Y+1	; 0x01
    21fc:	5a 81       	ldd	r21, Y+2	; 0x02
    21fe:	84 17       	cp	r24, r20
    2200:	95 07       	cpc	r25, r21
    2202:	14 f4       	brge	.+4      	; 0x2208 <srd_setfloat+0x18e>
    2204:	21 93       	st	Z+, r18
    2206:	f6 cf       	rjmp	.-20     	; 0x21f4 <srd_setfloat+0x17a>
    2208:	a8 01       	movw	r20, r16
    220a:	42 19       	sub	r20, r2
    220c:	53 09       	sbc	r21, r3
    220e:	4c 0d       	add	r20, r12
    2210:	5d 1d       	adc	r21, r13
    2212:	26 2d       	mov	r18, r6
    2214:	6b 81       	ldd	r22, Y+3	; 0x03
    2216:	c4 01       	movw	r24, r8
    2218:	0e 94 c4 0f 	call	0x1f88	; 0x1f88 <srd_signed_int16_to_patterns>
    221c:	01 50       	subi	r16, 0x01	; 1
    221e:	11 09       	sbc	r17, r1
    2220:	f6 01       	movw	r30, r12
    2222:	e0 0f       	add	r30, r16
    2224:	f1 1f       	adc	r31, r17
    2226:	80 81       	ld	r24, Z
    2228:	80 68       	ori	r24, 0x80	; 128
    222a:	80 83       	st	Z, r24
    222c:	81 e0       	ldi	r24, 0x01	; 1
    222e:	28 96       	adiw	r28, 0x08	; 8
    2230:	0f b6       	in	r0, 0x3f	; 63
    2232:	f8 94       	cli
    2234:	de bf       	out	0x3e, r29	; 62
    2236:	0f be       	out	0x3f, r0	; 63
    2238:	cd bf       	out	0x3d, r28	; 61
    223a:	df 91       	pop	r29
    223c:	cf 91       	pop	r28
    223e:	1f 91       	pop	r17
    2240:	0f 91       	pop	r16
    2242:	ff 90       	pop	r15
    2244:	ef 90       	pop	r14
    2246:	df 90       	pop	r13
    2248:	cf 90       	pop	r12
    224a:	bf 90       	pop	r11
    224c:	af 90       	pop	r10
    224e:	9f 90       	pop	r9
    2250:	8f 90       	pop	r8
    2252:	7f 90       	pop	r7
    2254:	6f 90       	pop	r6
    2256:	5f 90       	pop	r5
    2258:	4f 90       	pop	r4
    225a:	3f 90       	pop	r3
    225c:	2f 90       	pop	r2
    225e:	08 95       	ret

00002260 <srd_setint16>:
    2260:	8f 92       	push	r8
    2262:	9f 92       	push	r9
    2264:	af 92       	push	r10
    2266:	bf 92       	push	r11
    2268:	cf 92       	push	r12
    226a:	df 92       	push	r13
    226c:	ef 92       	push	r14
    226e:	ff 92       	push	r15
    2270:	0f 93       	push	r16
    2272:	1f 93       	push	r17
    2274:	cf 93       	push	r28
    2276:	df 93       	push	r29
    2278:	ec 01       	movw	r28, r24
    227a:	e6 2f       	mov	r30, r22
    227c:	f0 e0       	ldi	r31, 0x00	; 0
    227e:	24 2f       	mov	r18, r20
    2280:	30 e0       	ldi	r19, 0x00	; 0
    2282:	cf 01       	movw	r24, r30
    2284:	82 0f       	add	r24, r18
    2286:	93 1f       	adc	r25, r19
    2288:	07 97       	sbiw	r24, 0x07	; 7
    228a:	0c f0       	brlt	.+2      	; 0x228e <srd_setint16+0x2e>
    228c:	50 c0       	rjmp	.+160    	; 0x232e <srd_setint16+0xce>
    228e:	ef 5e       	subi	r30, 0xEF	; 239
    2290:	fe 4f       	sbci	r31, 0xFE	; 254
    2292:	d7 ff       	sbrs	r29, 7
    2294:	05 c0       	rjmp	.+10     	; 0x22a0 <srd_setint16+0x40>
    2296:	00 27       	eor	r16, r16
    2298:	11 27       	eor	r17, r17
    229a:	0c 1b       	sub	r16, r28
    229c:	1d 0b       	sbc	r17, r29
    229e:	03 c0       	rjmp	.+6      	; 0x22a6 <srd_setint16+0x46>
    22a0:	20 97       	sbiw	r28, 0x00	; 0
    22a2:	89 f0       	breq	.+34     	; 0x22c6 <srd_setint16+0x66>
    22a4:	8e 01       	movw	r16, r28
    22a6:	40 e0       	ldi	r20, 0x00	; 0
    22a8:	8d 2f       	mov	r24, r29
    22aa:	88 1f       	adc	r24, r24
    22ac:	88 27       	eor	r24, r24
    22ae:	88 1f       	adc	r24, r24
    22b0:	59 01       	movw	r10, r18
    22b2:	a8 1a       	sub	r10, r24
    22b4:	b1 08       	sbc	r11, r1
    22b6:	49 01       	movw	r8, r18
    22b8:	81 e0       	ldi	r24, 0x01	; 1
    22ba:	88 1a       	sub	r8, r24
    22bc:	91 08       	sbc	r9, r1
    22be:	8a e0       	ldi	r24, 0x0A	; 10
    22c0:	c8 2e       	mov	r12, r24
    22c2:	d1 2c       	mov	r13, r1
    22c4:	20 c0       	rjmp	.+64     	; 0x2306 <srd_setint16+0xa6>
    22c6:	e2 0f       	add	r30, r18
    22c8:	f3 1f       	adc	r31, r19
    22ca:	31 97       	sbiw	r30, 0x01	; 1
    22cc:	8f e3       	ldi	r24, 0x3F	; 63
    22ce:	2d c0       	rjmp	.+90     	; 0x232a <srd_setint16+0xca>
    22d0:	4f 5f       	subi	r20, 0xFF	; 255
    22d2:	74 01       	movw	r14, r8
    22d4:	e8 1a       	sub	r14, r24
    22d6:	f9 0a       	sbc	r15, r25
    22d8:	ee 0e       	add	r14, r30
    22da:	ff 1e       	adc	r15, r31
    22dc:	c8 01       	movw	r24, r16
    22de:	b6 01       	movw	r22, r12
    22e0:	0e 94 10 18 	call	0x3020	; 0x3020 <__divmodhi4>
    22e4:	81 50       	subi	r24, 0x01	; 1
    22e6:	89 30       	cpi	r24, 0x09	; 9
    22e8:	a0 f4       	brcc	.+40     	; 0x2312 <srd_setint16+0xb2>
    22ea:	a8 2f       	mov	r26, r24
    22ec:	b0 e0       	ldi	r27, 0x00	; 0
    22ee:	ac 5f       	subi	r26, 0xFC	; 252
    22f0:	be 4f       	sbci	r27, 0xFE	; 254
    22f2:	8c 91       	ld	r24, X
    22f4:	d7 01       	movw	r26, r14
    22f6:	8c 93       	st	X, r24
    22f8:	c8 01       	movw	r24, r16
    22fa:	b6 01       	movw	r22, r12
    22fc:	0e 94 10 18 	call	0x3020	; 0x3020 <__divmodhi4>
    2300:	8b 01       	movw	r16, r22
    2302:	67 2b       	or	r22, r23
    2304:	41 f0       	breq	.+16     	; 0x2316 <srd_setint16+0xb6>
    2306:	84 2f       	mov	r24, r20
    2308:	90 e0       	ldi	r25, 0x00	; 0
    230a:	8a 15       	cp	r24, r10
    230c:	9b 05       	cpc	r25, r11
    230e:	04 f3       	brlt	.-64     	; 0x22d0 <srd_setint16+0x70>
    2310:	02 c0       	rjmp	.+4      	; 0x2316 <srd_setint16+0xb6>
    2312:	8f e3       	ldi	r24, 0x3F	; 63
    2314:	ef cf       	rjmp	.-34     	; 0x22f4 <srd_setint16+0x94>
    2316:	d7 ff       	sbrs	r29, 7
    2318:	0c c0       	rjmp	.+24     	; 0x2332 <srd_setint16+0xd2>
    231a:	b9 01       	movw	r22, r18
    231c:	61 50       	subi	r22, 0x01	; 1
    231e:	71 09       	sbc	r23, r1
    2320:	64 1b       	sub	r22, r20
    2322:	71 09       	sbc	r23, r1
    2324:	e6 0f       	add	r30, r22
    2326:	f7 1f       	adc	r31, r23
    2328:	80 e4       	ldi	r24, 0x40	; 64
    232a:	80 83       	st	Z, r24
    232c:	02 c0       	rjmp	.+4      	; 0x2332 <srd_setint16+0xd2>
    232e:	80 e0       	ldi	r24, 0x00	; 0
    2330:	01 c0       	rjmp	.+2      	; 0x2334 <srd_setint16+0xd4>
    2332:	81 e0       	ldi	r24, 0x01	; 1
    2334:	df 91       	pop	r29
    2336:	cf 91       	pop	r28
    2338:	1f 91       	pop	r17
    233a:	0f 91       	pop	r16
    233c:	ff 90       	pop	r15
    233e:	ef 90       	pop	r14
    2340:	df 90       	pop	r13
    2342:	cf 90       	pop	r12
    2344:	bf 90       	pop	r11
    2346:	af 90       	pop	r10
    2348:	9f 90       	pop	r9
    234a:	8f 90       	pop	r8
    234c:	08 95       	ret

0000234e <srd_display>:
    234e:	0e 94 75 0f 	call	0x1eea	; 0x1eea <shreg_clear>
    2352:	66 e0       	ldi	r22, 0x06	; 6
    2354:	81 e1       	ldi	r24, 0x11	; 17
    2356:	91 e0       	ldi	r25, 0x01	; 1
    2358:	0e 94 9c 0f 	call	0x1f38	; 0x1f38 <shreg_write_bytes>
    235c:	0c 94 b2 0f 	jmp	0x1f64	; 0x1f64 <shreg_out>

00002360 <srd_clear>:
    2360:	e1 e1       	ldi	r30, 0x11	; 17
    2362:	f1 e0       	ldi	r31, 0x01	; 1
    2364:	10 82       	st	Z, r1
    2366:	11 82       	std	Z+1, r1	; 0x01
    2368:	12 82       	std	Z+2, r1	; 0x02
    236a:	13 82       	std	Z+3, r1	; 0x03
    236c:	14 82       	std	Z+4, r1	; 0x04
    236e:	15 82       	std	Z+5, r1	; 0x05
    2370:	08 95       	ret

00002372 <srd_init>:
    2372:	0e 94 b5 0f 	call	0x1f6a	; 0x1f6a <shreg_init>
    2376:	0e 94 b0 11 	call	0x2360	; 0x2360 <srd_clear>
    237a:	0c 94 a7 11 	jmp	0x234e	; 0x234e <srd_display>

0000237e <stirrer_init>:
    237e:	10 92 6f 00 	sts	0x006F, r1	; 0x80006f <__TEXT_REGION_LENGTH__+0x7e006f>
    2382:	e1 e8       	ldi	r30, 0x81	; 129
    2384:	f0 e0       	ldi	r31, 0x00	; 0
    2386:	80 81       	ld	r24, Z
    2388:	8e 7f       	andi	r24, 0xFE	; 254
    238a:	80 83       	st	Z, r24
    238c:	a0 e8       	ldi	r26, 0x80	; 128
    238e:	b0 e0       	ldi	r27, 0x00	; 0
    2390:	8c 91       	ld	r24, X
    2392:	8c 93       	st	X, r24
    2394:	80 81       	ld	r24, Z
    2396:	80 61       	ori	r24, 0x10	; 16
    2398:	80 83       	st	Z, r24
    239a:	80 ea       	ldi	r24, 0xA0	; 160
    239c:	90 e0       	ldi	r25, 0x00	; 0
    239e:	90 93 87 00 	sts	0x0087, r25	; 0x800087 <__TEXT_REGION_LENGTH__+0x7e0087>
    23a2:	80 93 86 00 	sts	0x0086, r24	; 0x800086 <__TEXT_REGION_LENGTH__+0x7e0086>
    23a6:	10 92 89 00 	sts	0x0089, r1	; 0x800089 <__TEXT_REGION_LENGTH__+0x7e0089>
    23aa:	10 92 88 00 	sts	0x0088, r1	; 0x800088 <__TEXT_REGION_LENGTH__+0x7e0088>
    23ae:	10 92 85 00 	sts	0x0085, r1	; 0x800085 <__TEXT_REGION_LENGTH__+0x7e0085>
    23b2:	10 92 84 00 	sts	0x0084, r1	; 0x800084 <__TEXT_REGION_LENGTH__+0x7e0084>
    23b6:	55 9a       	sbi	0x0a, 5	; 10
    23b8:	5d 98       	cbi	0x0b, 5	; 11
    23ba:	08 95       	ret

000023bc <stirrer_shutdown>:
    23bc:	e1 e8       	ldi	r30, 0x81	; 129
    23be:	f0 e0       	ldi	r31, 0x00	; 0
    23c0:	80 81       	ld	r24, Z
    23c2:	8e 7f       	andi	r24, 0xFE	; 254
    23c4:	80 83       	st	Z, r24
    23c6:	10 92 87 00 	sts	0x0087, r1	; 0x800087 <__TEXT_REGION_LENGTH__+0x7e0087>
    23ca:	10 92 86 00 	sts	0x0086, r1	; 0x800086 <__TEXT_REGION_LENGTH__+0x7e0086>
    23ce:	10 92 85 00 	sts	0x0085, r1	; 0x800085 <__TEXT_REGION_LENGTH__+0x7e0085>
    23d2:	10 92 84 00 	sts	0x0084, r1	; 0x800084 <__TEXT_REGION_LENGTH__+0x7e0084>
    23d6:	10 92 89 00 	sts	0x0089, r1	; 0x800089 <__TEXT_REGION_LENGTH__+0x7e0089>
    23da:	10 92 88 00 	sts	0x0088, r1	; 0x800088 <__TEXT_REGION_LENGTH__+0x7e0088>
    23de:	a0 e8       	ldi	r26, 0x80	; 128
    23e0:	b0 e0       	ldi	r27, 0x00	; 0
    23e2:	8c 91       	ld	r24, X
    23e4:	8f 77       	andi	r24, 0x7F	; 127
    23e6:	8c 93       	st	X, r24
    23e8:	80 81       	ld	r24, Z
    23ea:	8f 7e       	andi	r24, 0xEF	; 239
    23ec:	80 83       	st	Z, r24
    23ee:	55 98       	cbi	0x0a, 5	; 10
    23f0:	5d 98       	cbi	0x0b, 5	; 11
    23f2:	08 95       	ret

000023f4 <stirrer_set_duty_cycle>:
    23f4:	64 e6       	ldi	r22, 0x64	; 100
    23f6:	0e 94 4b 0d 	call	0x1a96	; 0x1a96 <umin8>
    23fa:	60 e0       	ldi	r22, 0x00	; 0
    23fc:	0e 94 46 0d 	call	0x1a8c	; 0x1a8c <umax8>
    2400:	28 2f       	mov	r18, r24
    2402:	30 e0       	ldi	r19, 0x00	; 0
    2404:	a0 ea       	ldi	r26, 0xA0	; 160
    2406:	b0 e0       	ldi	r27, 0x00	; 0
    2408:	0e 94 46 18 	call	0x308c	; 0x308c <__umulhisi3>
    240c:	24 e6       	ldi	r18, 0x64	; 100
    240e:	30 e0       	ldi	r19, 0x00	; 0
    2410:	40 e0       	ldi	r20, 0x00	; 0
    2412:	50 e0       	ldi	r21, 0x00	; 0
    2414:	0e 94 24 18 	call	0x3048	; 0x3048 <__udivmodsi4>
    2418:	30 93 89 00 	sts	0x0089, r19	; 0x800089 <__TEXT_REGION_LENGTH__+0x7e0089>
    241c:	20 93 88 00 	sts	0x0088, r18	; 0x800088 <__TEXT_REGION_LENGTH__+0x7e0088>
    2420:	08 95       	ret

00002422 <stirrer_on>:
    2422:	10 92 85 00 	sts	0x0085, r1	; 0x800085 <__TEXT_REGION_LENGTH__+0x7e0085>
    2426:	10 92 84 00 	sts	0x0084, r1	; 0x800084 <__TEXT_REGION_LENGTH__+0x7e0084>
    242a:	10 92 89 00 	sts	0x0089, r1	; 0x800089 <__TEXT_REGION_LENGTH__+0x7e0089>
    242e:	10 92 88 00 	sts	0x0088, r1	; 0x800088 <__TEXT_REGION_LENGTH__+0x7e0088>
    2432:	e0 e8       	ldi	r30, 0x80	; 128
    2434:	f0 e0       	ldi	r31, 0x00	; 0
    2436:	80 81       	ld	r24, Z
    2438:	80 68       	ori	r24, 0x80	; 128
    243a:	80 83       	st	Z, r24
    243c:	e1 e8       	ldi	r30, 0x81	; 129
    243e:	f0 e0       	ldi	r31, 0x00	; 0
    2440:	80 81       	ld	r24, Z
    2442:	81 60       	ori	r24, 0x01	; 1
    2444:	80 83       	st	Z, r24
    2446:	08 95       	ret

00002448 <stirrer_off>:
    2448:	e0 e8       	ldi	r30, 0x80	; 128
    244a:	f0 e0       	ldi	r31, 0x00	; 0
    244c:	80 81       	ld	r24, Z
    244e:	8f 77       	andi	r24, 0x7F	; 127
    2450:	80 83       	st	Z, r24
    2452:	e1 e8       	ldi	r30, 0x81	; 129
    2454:	f0 e0       	ldi	r31, 0x00	; 0
    2456:	80 81       	ld	r24, Z
    2458:	8e 7f       	andi	r24, 0xFE	; 254
    245a:	80 83       	st	Z, r24
    245c:	10 92 85 00 	sts	0x0085, r1	; 0x800085 <__TEXT_REGION_LENGTH__+0x7e0085>
    2460:	10 92 84 00 	sts	0x0084, r1	; 0x800084 <__TEXT_REGION_LENGTH__+0x7e0084>
    2464:	08 95       	ret

00002466 <switch_init>:
    2466:	84 b1       	in	r24, 0x04	; 4
    2468:	8c 7f       	andi	r24, 0xFC	; 252
    246a:	84 b9       	out	0x04, r24	; 4
    246c:	85 b1       	in	r24, 0x05	; 5
    246e:	83 60       	ori	r24, 0x03	; 3
    2470:	85 b9       	out	0x05, r24	; 5
    2472:	10 92 1e 01 	sts	0x011E, r1	; 0x80011e <switch_state_press>
    2476:	10 92 1d 01 	sts	0x011D, r1	; 0x80011d <switch_state_release>
    247a:	10 92 1c 01 	sts	0x011C, r1	; 0x80011c <switch_state_longpress>
    247e:	10 92 19 01 	sts	0x0119, r1	; 0x800119 <switch_state>
    2482:	ea e1       	ldi	r30, 0x1A	; 26
    2484:	f1 e0       	ldi	r31, 0x01	; 1
    2486:	10 82       	st	Z, r1
    2488:	11 82       	std	Z+1, r1	; 0x01
    248a:	83 e0       	ldi	r24, 0x03	; 3
    248c:	80 93 18 01 	sts	0x0118, r24	; 0x800118 <switch_debounce_ct0>
    2490:	80 93 17 01 	sts	0x0117, r24	; 0x800117 <switch_debounce_ct1>
    2494:	08 95       	ret

00002496 <switch_shutdown>:
    2496:	85 b1       	in	r24, 0x05	; 5
    2498:	8c 7f       	andi	r24, 0xFC	; 252
    249a:	85 b9       	out	0x05, r24	; 5
    249c:	10 92 1e 01 	sts	0x011E, r1	; 0x80011e <switch_state_press>
    24a0:	10 92 1d 01 	sts	0x011D, r1	; 0x80011d <switch_state_release>
    24a4:	10 92 1c 01 	sts	0x011C, r1	; 0x80011c <switch_state_longpress>
    24a8:	10 92 19 01 	sts	0x0119, r1	; 0x800119 <switch_state>
    24ac:	ea e1       	ldi	r30, 0x1A	; 26
    24ae:	f1 e0       	ldi	r31, 0x01	; 1
    24b0:	10 82       	st	Z, r1
    24b2:	11 82       	std	Z+1, r1	; 0x01
    24b4:	83 e0       	ldi	r24, 0x03	; 3
    24b6:	80 93 18 01 	sts	0x0118, r24	; 0x800118 <switch_debounce_ct0>
    24ba:	80 93 17 01 	sts	0x0117, r24	; 0x800117 <switch_debounce_ct1>
    24be:	08 95       	ret

000024c0 <switch_press>:
    24c0:	20 91 1e 01 	lds	r18, 0x011E	; 0x80011e <switch_state_press>
    24c4:	30 e0       	ldi	r19, 0x00	; 0
    24c6:	08 2e       	mov	r0, r24
    24c8:	02 c0       	rjmp	.+4      	; 0x24ce <switch_press+0xe>
    24ca:	35 95       	asr	r19
    24cc:	27 95       	ror	r18
    24ce:	0a 94       	dec	r0
    24d0:	e2 f7       	brpl	.-8      	; 0x24ca <switch_press+0xa>
    24d2:	20 ff       	sbrs	r18, 0
    24d4:	11 c0       	rjmp	.+34     	; 0x24f8 <switch_press+0x38>
    24d6:	40 91 1e 01 	lds	r20, 0x011E	; 0x80011e <switch_state_press>
    24da:	21 e0       	ldi	r18, 0x01	; 1
    24dc:	30 e0       	ldi	r19, 0x00	; 0
    24de:	b9 01       	movw	r22, r18
    24e0:	02 c0       	rjmp	.+4      	; 0x24e6 <switch_press+0x26>
    24e2:	66 0f       	add	r22, r22
    24e4:	77 1f       	adc	r23, r23
    24e6:	8a 95       	dec	r24
    24e8:	e2 f7       	brpl	.-8      	; 0x24e2 <switch_press+0x22>
    24ea:	cb 01       	movw	r24, r22
    24ec:	80 95       	com	r24
    24ee:	84 23       	and	r24, r20
    24f0:	80 93 1e 01 	sts	0x011E, r24	; 0x80011e <switch_state_press>
    24f4:	81 e0       	ldi	r24, 0x01	; 1
    24f6:	08 95       	ret
    24f8:	80 e0       	ldi	r24, 0x00	; 0
    24fa:	08 95       	ret

000024fc <switch_release>:
    24fc:	20 91 1d 01 	lds	r18, 0x011D	; 0x80011d <switch_state_release>
    2500:	30 e0       	ldi	r19, 0x00	; 0
    2502:	08 2e       	mov	r0, r24
    2504:	02 c0       	rjmp	.+4      	; 0x250a <switch_release+0xe>
    2506:	35 95       	asr	r19
    2508:	27 95       	ror	r18
    250a:	0a 94       	dec	r0
    250c:	e2 f7       	brpl	.-8      	; 0x2506 <switch_release+0xa>
    250e:	20 ff       	sbrs	r18, 0
    2510:	11 c0       	rjmp	.+34     	; 0x2534 <switch_release+0x38>
    2512:	40 91 1d 01 	lds	r20, 0x011D	; 0x80011d <switch_state_release>
    2516:	21 e0       	ldi	r18, 0x01	; 1
    2518:	30 e0       	ldi	r19, 0x00	; 0
    251a:	b9 01       	movw	r22, r18
    251c:	02 c0       	rjmp	.+4      	; 0x2522 <switch_release+0x26>
    251e:	66 0f       	add	r22, r22
    2520:	77 1f       	adc	r23, r23
    2522:	8a 95       	dec	r24
    2524:	e2 f7       	brpl	.-8      	; 0x251e <switch_release+0x22>
    2526:	cb 01       	movw	r24, r22
    2528:	80 95       	com	r24
    252a:	84 23       	and	r24, r20
    252c:	80 93 1d 01 	sts	0x011D, r24	; 0x80011d <switch_state_release>
    2530:	81 e0       	ldi	r24, 0x01	; 1
    2532:	08 95       	ret
    2534:	80 e0       	ldi	r24, 0x00	; 0
    2536:	08 95       	ret

00002538 <switch_longpress>:
    2538:	20 91 1c 01 	lds	r18, 0x011C	; 0x80011c <switch_state_longpress>
    253c:	30 e0       	ldi	r19, 0x00	; 0
    253e:	08 2e       	mov	r0, r24
    2540:	02 c0       	rjmp	.+4      	; 0x2546 <switch_longpress+0xe>
    2542:	35 95       	asr	r19
    2544:	27 95       	ror	r18
    2546:	0a 94       	dec	r0
    2548:	e2 f7       	brpl	.-8      	; 0x2542 <switch_longpress+0xa>
    254a:	20 ff       	sbrs	r18, 0
    254c:	11 c0       	rjmp	.+34     	; 0x2570 <switch_longpress+0x38>
    254e:	40 91 1c 01 	lds	r20, 0x011C	; 0x80011c <switch_state_longpress>
    2552:	21 e0       	ldi	r18, 0x01	; 1
    2554:	30 e0       	ldi	r19, 0x00	; 0
    2556:	b9 01       	movw	r22, r18
    2558:	02 c0       	rjmp	.+4      	; 0x255e <switch_longpress+0x26>
    255a:	66 0f       	add	r22, r22
    255c:	77 1f       	adc	r23, r23
    255e:	8a 95       	dec	r24
    2560:	e2 f7       	brpl	.-8      	; 0x255a <switch_longpress+0x22>
    2562:	cb 01       	movw	r24, r22
    2564:	80 95       	com	r24
    2566:	84 23       	and	r24, r20
    2568:	80 93 1c 01 	sts	0x011C, r24	; 0x80011c <switch_state_longpress>
    256c:	81 e0       	ldi	r24, 0x01	; 1
    256e:	08 95       	ret
    2570:	80 e0       	ldi	r24, 0x00	; 0
    2572:	08 95       	ret

00002574 <switch_get_state>:
    2574:	20 91 19 01 	lds	r18, 0x0119	; 0x800119 <switch_state>
    2578:	30 e0       	ldi	r19, 0x00	; 0
    257a:	a9 01       	movw	r20, r18
    257c:	02 c0       	rjmp	.+4      	; 0x2582 <switch_get_state+0xe>
    257e:	55 95       	asr	r21
    2580:	47 95       	ror	r20
    2582:	8a 95       	dec	r24
    2584:	e2 f7       	brpl	.-8      	; 0x257e <switch_get_state+0xa>
    2586:	ca 01       	movw	r24, r20
    2588:	81 70       	andi	r24, 0x01	; 1
    258a:	08 95       	ret

0000258c <switch_update>:
    258c:	93 b1       	in	r25, 0x03	; 3
    258e:	30 91 19 01 	lds	r19, 0x0119	; 0x800119 <switch_state>
    2592:	90 95       	com	r25
    2594:	29 2f       	mov	r18, r25
    2596:	23 27       	eor	r18, r19
    2598:	80 91 18 01 	lds	r24, 0x0118	; 0x800118 <switch_debounce_ct0>
    259c:	82 23       	and	r24, r18
    259e:	80 95       	com	r24
    25a0:	80 93 18 01 	sts	0x0118, r24	; 0x800118 <switch_debounce_ct0>
    25a4:	80 91 17 01 	lds	r24, 0x0117	; 0x800117 <switch_debounce_ct1>
    25a8:	90 91 18 01 	lds	r25, 0x0118	; 0x800118 <switch_debounce_ct0>
    25ac:	82 23       	and	r24, r18
    25ae:	89 27       	eor	r24, r25
    25b0:	80 93 17 01 	sts	0x0117, r24	; 0x800117 <switch_debounce_ct1>
    25b4:	90 91 18 01 	lds	r25, 0x0118	; 0x800118 <switch_debounce_ct0>
    25b8:	80 91 17 01 	lds	r24, 0x0117	; 0x800117 <switch_debounce_ct1>
    25bc:	98 23       	and	r25, r24
    25be:	93 70       	andi	r25, 0x03	; 3
    25c0:	92 23       	and	r25, r18
    25c2:	80 91 19 01 	lds	r24, 0x0119	; 0x800119 <switch_state>
    25c6:	89 27       	eor	r24, r25
    25c8:	80 93 19 01 	sts	0x0119, r24	; 0x800119 <switch_state>
    25cc:	40 91 19 01 	lds	r20, 0x0119	; 0x800119 <switch_state>
    25d0:	49 23       	and	r20, r25
    25d2:	80 91 19 01 	lds	r24, 0x0119	; 0x800119 <switch_state>
    25d6:	80 95       	com	r24
    25d8:	89 23       	and	r24, r25
    25da:	20 e0       	ldi	r18, 0x00	; 0
    25dc:	30 e0       	ldi	r19, 0x00	; 0
    25de:	50 e0       	ldi	r21, 0x00	; 0
    25e0:	08 2e       	mov	r0, r24
    25e2:	00 0c       	add	r0, r0
    25e4:	99 0b       	sbc	r25, r25
    25e6:	e1 e0       	ldi	r30, 0x01	; 1
    25e8:	f0 e0       	ldi	r31, 0x00	; 0
    25ea:	ba 01       	movw	r22, r20
    25ec:	02 2e       	mov	r0, r18
    25ee:	02 c0       	rjmp	.+4      	; 0x25f4 <switch_update+0x68>
    25f0:	75 95       	asr	r23
    25f2:	67 95       	ror	r22
    25f4:	0a 94       	dec	r0
    25f6:	e2 f7       	brpl	.-8      	; 0x25f0 <switch_update+0x64>
    25f8:	60 ff       	sbrs	r22, 0
    25fa:	10 c0       	rjmp	.+32     	; 0x261c <switch_update+0x90>
    25fc:	a0 91 1e 01 	lds	r26, 0x011E	; 0x80011e <switch_state_press>
    2600:	bf 01       	movw	r22, r30
    2602:	02 2e       	mov	r0, r18
    2604:	01 c0       	rjmp	.+2      	; 0x2608 <switch_update+0x7c>
    2606:	66 0f       	add	r22, r22
    2608:	0a 94       	dec	r0
    260a:	ea f7       	brpl	.-6      	; 0x2606 <switch_update+0x7a>
    260c:	6a 2b       	or	r22, r26
    260e:	60 93 1e 01 	sts	0x011E, r22	; 0x80011e <switch_state_press>
    2612:	d9 01       	movw	r26, r18
    2614:	a6 5e       	subi	r26, 0xE6	; 230
    2616:	be 4f       	sbci	r27, 0xFE	; 254
    2618:	1c 92       	st	X, r1
    261a:	14 c0       	rjmp	.+40     	; 0x2644 <switch_update+0xb8>
    261c:	bc 01       	movw	r22, r24
    261e:	02 2e       	mov	r0, r18
    2620:	02 c0       	rjmp	.+4      	; 0x2626 <switch_update+0x9a>
    2622:	75 95       	asr	r23
    2624:	67 95       	ror	r22
    2626:	0a 94       	dec	r0
    2628:	e2 f7       	brpl	.-8      	; 0x2622 <switch_update+0x96>
    262a:	60 ff       	sbrs	r22, 0
    262c:	0b c0       	rjmp	.+22     	; 0x2644 <switch_update+0xb8>
    262e:	a0 91 1d 01 	lds	r26, 0x011D	; 0x80011d <switch_state_release>
    2632:	bf 01       	movw	r22, r30
    2634:	02 2e       	mov	r0, r18
    2636:	01 c0       	rjmp	.+2      	; 0x263a <switch_update+0xae>
    2638:	66 0f       	add	r22, r22
    263a:	0a 94       	dec	r0
    263c:	ea f7       	brpl	.-6      	; 0x2638 <switch_update+0xac>
    263e:	6a 2b       	or	r22, r26
    2640:	60 93 1d 01 	sts	0x011D, r22	; 0x80011d <switch_state_release>
    2644:	60 91 19 01 	lds	r22, 0x0119	; 0x800119 <switch_state>
    2648:	70 e0       	ldi	r23, 0x00	; 0
    264a:	02 2e       	mov	r0, r18
    264c:	02 c0       	rjmp	.+4      	; 0x2652 <switch_update+0xc6>
    264e:	75 95       	asr	r23
    2650:	67 95       	ror	r22
    2652:	0a 94       	dec	r0
    2654:	e2 f7       	brpl	.-8      	; 0x264e <switch_update+0xc2>
    2656:	60 ff       	sbrs	r22, 0
    2658:	16 c0       	rjmp	.+44     	; 0x2686 <switch_update+0xfa>
    265a:	d9 01       	movw	r26, r18
    265c:	a6 5e       	subi	r26, 0xE6	; 230
    265e:	be 4f       	sbci	r27, 0xFE	; 254
    2660:	6c 91       	ld	r22, X
    2662:	64 36       	cpi	r22, 0x64	; 100
    2664:	80 f4       	brcc	.+32     	; 0x2686 <switch_update+0xfa>
    2666:	6c 91       	ld	r22, X
    2668:	6f 5f       	subi	r22, 0xFF	; 255
    266a:	6c 93       	st	X, r22
    266c:	64 36       	cpi	r22, 0x64	; 100
    266e:	59 f4       	brne	.+22     	; 0x2686 <switch_update+0xfa>
    2670:	a0 91 1c 01 	lds	r26, 0x011C	; 0x80011c <switch_state_longpress>
    2674:	bf 01       	movw	r22, r30
    2676:	02 2e       	mov	r0, r18
    2678:	01 c0       	rjmp	.+2      	; 0x267c <switch_update+0xf0>
    267a:	66 0f       	add	r22, r22
    267c:	0a 94       	dec	r0
    267e:	ea f7       	brpl	.-6      	; 0x267a <switch_update+0xee>
    2680:	6a 2b       	or	r22, r26
    2682:	60 93 1c 01 	sts	0x011C, r22	; 0x80011c <switch_state_longpress>
    2686:	2f 5f       	subi	r18, 0xFF	; 255
    2688:	3f 4f       	sbci	r19, 0xFF	; 255
    268a:	22 30       	cpi	r18, 0x02	; 2
    268c:	31 05       	cpc	r19, r1
    268e:	09 f0       	breq	.+2      	; 0x2692 <switch_update+0x106>
    2690:	ac cf       	rjmp	.-168    	; 0x25ea <switch_update+0x5e>
    2692:	08 95       	ret

00002694 <tsens_init>:
    2694:	ea e7       	ldi	r30, 0x7A	; 122
    2696:	f0 e0       	ldi	r31, 0x00	; 0
    2698:	80 81       	ld	r24, Z
    269a:	87 75       	andi	r24, 0x57	; 87
    269c:	80 83       	st	Z, r24
    269e:	ac e7       	ldi	r26, 0x7C	; 124
    26a0:	b0 e0       	ldi	r27, 0x00	; 0
    26a2:	1c 92       	st	X, r1
    26a4:	8c 91       	ld	r24, X
    26a6:	80 64       	ori	r24, 0x40	; 64
    26a8:	8c 93       	st	X, r24
    26aa:	80 81       	ld	r24, Z
    26ac:	86 60       	ori	r24, 0x06	; 6
    26ae:	80 83       	st	Z, r24
    26b0:	80 ef       	ldi	r24, 0xF0	; 240
    26b2:	80 93 7e 00 	sts	0x007E, r24	; 0x80007e <__TEXT_REGION_LENGTH__+0x7e007e>
    26b6:	08 95       	ret

000026b8 <tsens_shutdown>:
    26b8:	9f b7       	in	r25, 0x3f	; 63
    26ba:	f8 94       	cli
    26bc:	ea e7       	ldi	r30, 0x7A	; 122
    26be:	f0 e0       	ldi	r31, 0x00	; 0
    26c0:	80 81       	ld	r24, Z
    26c2:	87 75       	andi	r24, 0x57	; 87
    26c4:	80 83       	st	Z, r24
    26c6:	10 92 7c 00 	sts	0x007C, r1	; 0x80007c <__TEXT_REGION_LENGTH__+0x7e007c>
    26ca:	80 81       	ld	r24, Z
    26cc:	88 7f       	andi	r24, 0xF8	; 248
    26ce:	80 83       	st	Z, r24
    26d0:	8f ef       	ldi	r24, 0xFF	; 255
    26d2:	80 93 7e 00 	sts	0x007E, r24	; 0x80007e <__TEXT_REGION_LENGTH__+0x7e007e>
    26d6:	9f bf       	out	0x3f, r25	; 63
    26d8:	08 95       	ret

000026da <tsens_start_adc>:
    26da:	80 91 7a 00 	lds	r24, 0x007A	; 0x80007a <__TEXT_REGION_LENGTH__+0x7e007a>
    26de:	80 68       	ori	r24, 0x80	; 128
    26e0:	80 93 7a 00 	sts	0x007A, r24	; 0x80007a <__TEXT_REGION_LENGTH__+0x7e007a>
    26e4:	80 91 7a 00 	lds	r24, 0x007A	; 0x80007a <__TEXT_REGION_LENGTH__+0x7e007a>
    26e8:	80 64       	ori	r24, 0x40	; 64
    26ea:	80 93 7a 00 	sts	0x007A, r24	; 0x80007a <__TEXT_REGION_LENGTH__+0x7e007a>
    26ee:	80 91 7a 00 	lds	r24, 0x007A	; 0x80007a <__TEXT_REGION_LENGTH__+0x7e007a>
    26f2:	86 fd       	sbrc	r24, 6
    26f4:	fc cf       	rjmp	.-8      	; 0x26ee <tsens_start_adc+0x14>
    26f6:	80 91 78 00 	lds	r24, 0x0078	; 0x800078 <__TEXT_REGION_LENGTH__+0x7e0078>
    26fa:	90 91 79 00 	lds	r25, 0x0079	; 0x800079 <__TEXT_REGION_LENGTH__+0x7e0079>
    26fe:	08 95       	ret

00002700 <tsens_measure0_raw>:
    2700:	fc 01       	movw	r30, r24
    2702:	80 91 7c 00 	lds	r24, 0x007C	; 0x80007c <__TEXT_REGION_LENGTH__+0x7e007c>
    2706:	80 7e       	andi	r24, 0xE0	; 224
    2708:	80 93 7c 00 	sts	0x007C, r24	; 0x80007c <__TEXT_REGION_LENGTH__+0x7e007c>
    270c:	80 91 7c 00 	lds	r24, 0x007C	; 0x80007c <__TEXT_REGION_LENGTH__+0x7e007c>
    2710:	80 93 7c 00 	sts	0x007C, r24	; 0x80007c <__TEXT_REGION_LENGTH__+0x7e007c>
    2714:	80 91 7a 00 	lds	r24, 0x007A	; 0x80007a <__TEXT_REGION_LENGTH__+0x7e007a>
    2718:	80 64       	ori	r24, 0x40	; 64
    271a:	80 93 7a 00 	sts	0x007A, r24	; 0x80007a <__TEXT_REGION_LENGTH__+0x7e007a>
    271e:	80 91 7a 00 	lds	r24, 0x007A	; 0x80007a <__TEXT_REGION_LENGTH__+0x7e007a>
    2722:	86 fd       	sbrc	r24, 6
    2724:	fc cf       	rjmp	.-8      	; 0x271e <tsens_measure0_raw+0x1e>
    2726:	80 91 78 00 	lds	r24, 0x0078	; 0x800078 <__TEXT_REGION_LENGTH__+0x7e0078>
    272a:	90 91 79 00 	lds	r25, 0x0079	; 0x800079 <__TEXT_REGION_LENGTH__+0x7e0079>
    272e:	00 97       	sbiw	r24, 0x00	; 0
    2730:	11 f4       	brne	.+4      	; 0x2736 <tsens_measure0_raw+0x36>
    2732:	22 e0       	ldi	r18, 0x02	; 2
    2734:	05 c0       	rjmp	.+10     	; 0x2740 <tsens_measure0_raw+0x40>
    2736:	8f 3f       	cpi	r24, 0xFF	; 255
    2738:	23 e0       	ldi	r18, 0x03	; 3
    273a:	92 07       	cpc	r25, r18
    273c:	18 f0       	brcs	.+6      	; 0x2744 <tsens_measure0_raw+0x44>
    273e:	21 e0       	ldi	r18, 0x01	; 1
    2740:	20 83       	st	Z, r18
    2742:	08 95       	ret
    2744:	10 82       	st	Z, r1
    2746:	08 95       	ret

00002748 <tsens_measure0_resistance>:
    2748:	8f 92       	push	r8
    274a:	9f 92       	push	r9
    274c:	af 92       	push	r10
    274e:	bf 92       	push	r11
    2750:	cf 92       	push	r12
    2752:	df 92       	push	r13
    2754:	ef 92       	push	r14
    2756:	ff 92       	push	r15
    2758:	cf 93       	push	r28
    275a:	5c 01       	movw	r10, r24
    275c:	c4 e0       	ldi	r28, 0x04	; 4
    275e:	c1 2c       	mov	r12, r1
    2760:	d1 2c       	mov	r13, r1
    2762:	76 01       	movw	r14, r12
    2764:	c5 01       	movw	r24, r10
    2766:	0e 94 80 13 	call	0x2700	; 0x2700 <tsens_measure0_raw>
    276a:	c8 0e       	add	r12, r24
    276c:	d9 1e       	adc	r13, r25
    276e:	e1 1c       	adc	r14, r1
    2770:	f1 1c       	adc	r15, r1
    2772:	c1 50       	subi	r28, 0x01	; 1
    2774:	b9 f7       	brne	.-18     	; 0x2764 <tsens_measure0_resistance+0x1c>
    2776:	c7 01       	movw	r24, r14
    2778:	b6 01       	movw	r22, r12
    277a:	0e 94 45 16 	call	0x2c8a	; 0x2c8a <__floatsisf>
    277e:	20 e0       	ldi	r18, 0x00	; 0
    2780:	30 e0       	ldi	r19, 0x00	; 0
    2782:	40 e8       	ldi	r20, 0x80	; 128
    2784:	59 e3       	ldi	r21, 0x39	; 57
    2786:	0e 94 5a 17 	call	0x2eb4	; 0x2eb4 <__mulsf3>
    278a:	20 e0       	ldi	r18, 0x00	; 0
    278c:	30 e0       	ldi	r19, 0x00	; 0
    278e:	40 ea       	ldi	r20, 0xA0	; 160
    2790:	50 e4       	ldi	r21, 0x40	; 64
    2792:	0e 94 5a 17 	call	0x2eb4	; 0x2eb4 <__mulsf3>
    2796:	6b 01       	movw	r12, r22
    2798:	7c 01       	movw	r14, r24
    279a:	20 e0       	ldi	r18, 0x00	; 0
    279c:	30 e5       	ldi	r19, 0x50	; 80
    279e:	43 ec       	ldi	r20, 0xC3	; 195
    27a0:	57 e4       	ldi	r21, 0x47	; 71
    27a2:	0e 94 5a 17 	call	0x2eb4	; 0x2eb4 <__mulsf3>
    27a6:	4b 01       	movw	r8, r22
    27a8:	5c 01       	movw	r10, r24
    27aa:	a7 01       	movw	r20, r14
    27ac:	96 01       	movw	r18, r12
    27ae:	60 e0       	ldi	r22, 0x00	; 0
    27b0:	70 e0       	ldi	r23, 0x00	; 0
    27b2:	80 ea       	ldi	r24, 0xA0	; 160
    27b4:	90 e4       	ldi	r25, 0x40	; 64
    27b6:	0e 94 ed 14 	call	0x29da	; 0x29da <__subsf3>
    27ba:	9b 01       	movw	r18, r22
    27bc:	ac 01       	movw	r20, r24
    27be:	c5 01       	movw	r24, r10
    27c0:	b4 01       	movw	r22, r8
    27c2:	0e 94 5f 15 	call	0x2abe	; 0x2abe <__divsf3>
    27c6:	cf 91       	pop	r28
    27c8:	ff 90       	pop	r15
    27ca:	ef 90       	pop	r14
    27cc:	df 90       	pop	r13
    27ce:	cf 90       	pop	r12
    27d0:	bf 90       	pop	r11
    27d2:	af 90       	pop	r10
    27d4:	9f 90       	pop	r9
    27d6:	8f 90       	pop	r8
    27d8:	08 95       	ret

000027da <tsens_measure_probe0_temp>:
    27da:	8f 92       	push	r8
    27dc:	9f 92       	push	r9
    27de:	af 92       	push	r10
    27e0:	bf 92       	push	r11
    27e2:	cf 92       	push	r12
    27e4:	df 92       	push	r13
    27e6:	ef 92       	push	r14
    27e8:	ff 92       	push	r15
    27ea:	0e 94 a4 13 	call	0x2748	; 0x2748 <tsens_measure0_resistance>
    27ee:	0e 94 12 17 	call	0x2e24	; 0x2e24 <log>
    27f2:	6b 01       	movw	r12, r22
    27f4:	7c 01       	movw	r14, r24
    27f6:	2b e0       	ldi	r18, 0x0B	; 11
    27f8:	37 ed       	ldi	r19, 0xD7	; 215
    27fa:	4b e0       	ldi	r20, 0x0B	; 11
    27fc:	55 eb       	ldi	r21, 0xB5	; 181
    27fe:	0e 94 5a 17 	call	0x2eb4	; 0x2eb4 <__mulsf3>
    2802:	a7 01       	movw	r20, r14
    2804:	96 01       	movw	r18, r12
    2806:	0e 94 5a 17 	call	0x2eb4	; 0x2eb4 <__mulsf3>
    280a:	a7 01       	movw	r20, r14
    280c:	96 01       	movw	r18, r12
    280e:	0e 94 5a 17 	call	0x2eb4	; 0x2eb4 <__mulsf3>
    2812:	4b 01       	movw	r8, r22
    2814:	5c 01       	movw	r10, r24
    2816:	20 ea       	ldi	r18, 0xA0	; 160
    2818:	30 e6       	ldi	r19, 0x60	; 96
    281a:	42 ef       	ldi	r20, 0xF2	; 242
    281c:	59 e3       	ldi	r21, 0x39	; 57
    281e:	c7 01       	movw	r24, r14
    2820:	b6 01       	movw	r22, r12
    2822:	0e 94 5a 17 	call	0x2eb4	; 0x2eb4 <__mulsf3>
    2826:	25 e5       	ldi	r18, 0x55	; 85
    2828:	39 ef       	ldi	r19, 0xF9	; 249
    282a:	46 e9       	ldi	r20, 0x96	; 150
    282c:	5a e3       	ldi	r21, 0x3A	; 58
    282e:	0e 94 ed 14 	call	0x29da	; 0x29da <__subsf3>
    2832:	9b 01       	movw	r18, r22
    2834:	ac 01       	movw	r20, r24
    2836:	c5 01       	movw	r24, r10
    2838:	b4 01       	movw	r22, r8
    283a:	0e 94 ee 14 	call	0x29dc	; 0x29dc <__addsf3>
    283e:	9b 01       	movw	r18, r22
    2840:	ac 01       	movw	r20, r24
    2842:	60 e0       	ldi	r22, 0x00	; 0
    2844:	70 e0       	ldi	r23, 0x00	; 0
    2846:	80 e8       	ldi	r24, 0x80	; 128
    2848:	9f e3       	ldi	r25, 0x3F	; 63
    284a:	0e 94 5f 15 	call	0x2abe	; 0x2abe <__divsf3>
    284e:	23 e3       	ldi	r18, 0x33	; 51
    2850:	33 e9       	ldi	r19, 0x93	; 147
    2852:	48 e8       	ldi	r20, 0x88	; 136
    2854:	53 e4       	ldi	r21, 0x43	; 67
    2856:	0e 94 ed 14 	call	0x29da	; 0x29da <__subsf3>
    285a:	ff 90       	pop	r15
    285c:	ef 90       	pop	r14
    285e:	df 90       	pop	r13
    2860:	cf 90       	pop	r12
    2862:	bf 90       	pop	r11
    2864:	af 90       	pop	r10
    2866:	9f 90       	pop	r9
    2868:	8f 90       	pop	r8
    286a:	08 95       	ret

0000286c <tsens_measure1_raw>:
    286c:	fc 01       	movw	r30, r24
    286e:	80 91 7c 00 	lds	r24, 0x007C	; 0x80007c <__TEXT_REGION_LENGTH__+0x7e007c>
    2872:	80 7e       	andi	r24, 0xE0	; 224
    2874:	80 93 7c 00 	sts	0x007C, r24	; 0x80007c <__TEXT_REGION_LENGTH__+0x7e007c>
    2878:	80 91 7c 00 	lds	r24, 0x007C	; 0x80007c <__TEXT_REGION_LENGTH__+0x7e007c>
    287c:	81 60       	ori	r24, 0x01	; 1
    287e:	80 93 7c 00 	sts	0x007C, r24	; 0x80007c <__TEXT_REGION_LENGTH__+0x7e007c>
    2882:	80 91 7a 00 	lds	r24, 0x007A	; 0x80007a <__TEXT_REGION_LENGTH__+0x7e007a>
    2886:	80 64       	ori	r24, 0x40	; 64
    2888:	80 93 7a 00 	sts	0x007A, r24	; 0x80007a <__TEXT_REGION_LENGTH__+0x7e007a>
    288c:	80 91 7a 00 	lds	r24, 0x007A	; 0x80007a <__TEXT_REGION_LENGTH__+0x7e007a>
    2890:	86 fd       	sbrc	r24, 6
    2892:	fc cf       	rjmp	.-8      	; 0x288c <tsens_measure1_raw+0x20>
    2894:	80 91 78 00 	lds	r24, 0x0078	; 0x800078 <__TEXT_REGION_LENGTH__+0x7e0078>
    2898:	90 91 79 00 	lds	r25, 0x0079	; 0x800079 <__TEXT_REGION_LENGTH__+0x7e0079>
    289c:	00 97       	sbiw	r24, 0x00	; 0
    289e:	11 f4       	brne	.+4      	; 0x28a4 <tsens_measure1_raw+0x38>
    28a0:	22 e0       	ldi	r18, 0x02	; 2
    28a2:	05 c0       	rjmp	.+10     	; 0x28ae <tsens_measure1_raw+0x42>
    28a4:	8f 3f       	cpi	r24, 0xFF	; 255
    28a6:	23 e0       	ldi	r18, 0x03	; 3
    28a8:	92 07       	cpc	r25, r18
    28aa:	18 f0       	brcs	.+6      	; 0x28b2 <tsens_measure1_raw+0x46>
    28ac:	21 e0       	ldi	r18, 0x01	; 1
    28ae:	20 83       	st	Z, r18
    28b0:	08 95       	ret
    28b2:	10 82       	st	Z, r1
    28b4:	08 95       	ret

000028b6 <tsens_measure1_resistance>:
    28b6:	8f 92       	push	r8
    28b8:	9f 92       	push	r9
    28ba:	af 92       	push	r10
    28bc:	bf 92       	push	r11
    28be:	cf 92       	push	r12
    28c0:	df 92       	push	r13
    28c2:	ef 92       	push	r14
    28c4:	ff 92       	push	r15
    28c6:	cf 93       	push	r28
    28c8:	5c 01       	movw	r10, r24
    28ca:	c4 e0       	ldi	r28, 0x04	; 4
    28cc:	c1 2c       	mov	r12, r1
    28ce:	d1 2c       	mov	r13, r1
    28d0:	76 01       	movw	r14, r12
    28d2:	c5 01       	movw	r24, r10
    28d4:	0e 94 36 14 	call	0x286c	; 0x286c <tsens_measure1_raw>
    28d8:	c8 0e       	add	r12, r24
    28da:	d9 1e       	adc	r13, r25
    28dc:	e1 1c       	adc	r14, r1
    28de:	f1 1c       	adc	r15, r1
    28e0:	c1 50       	subi	r28, 0x01	; 1
    28e2:	b9 f7       	brne	.-18     	; 0x28d2 <tsens_measure1_resistance+0x1c>
    28e4:	c7 01       	movw	r24, r14
    28e6:	b6 01       	movw	r22, r12
    28e8:	0e 94 45 16 	call	0x2c8a	; 0x2c8a <__floatsisf>
    28ec:	20 e0       	ldi	r18, 0x00	; 0
    28ee:	30 e0       	ldi	r19, 0x00	; 0
    28f0:	40 e8       	ldi	r20, 0x80	; 128
    28f2:	59 e3       	ldi	r21, 0x39	; 57
    28f4:	0e 94 5a 17 	call	0x2eb4	; 0x2eb4 <__mulsf3>
    28f8:	20 e0       	ldi	r18, 0x00	; 0
    28fa:	30 e0       	ldi	r19, 0x00	; 0
    28fc:	40 ea       	ldi	r20, 0xA0	; 160
    28fe:	50 e4       	ldi	r21, 0x40	; 64
    2900:	0e 94 5a 17 	call	0x2eb4	; 0x2eb4 <__mulsf3>
    2904:	6b 01       	movw	r12, r22
    2906:	7c 01       	movw	r14, r24
    2908:	20 e0       	ldi	r18, 0x00	; 0
    290a:	30 e4       	ldi	r19, 0x40	; 64
    290c:	4c e1       	ldi	r20, 0x1C	; 28
    290e:	56 e4       	ldi	r21, 0x46	; 70
    2910:	0e 94 5a 17 	call	0x2eb4	; 0x2eb4 <__mulsf3>
    2914:	4b 01       	movw	r8, r22
    2916:	5c 01       	movw	r10, r24
    2918:	a7 01       	movw	r20, r14
    291a:	96 01       	movw	r18, r12
    291c:	60 e0       	ldi	r22, 0x00	; 0
    291e:	70 e0       	ldi	r23, 0x00	; 0
    2920:	80 ea       	ldi	r24, 0xA0	; 160
    2922:	90 e4       	ldi	r25, 0x40	; 64
    2924:	0e 94 ed 14 	call	0x29da	; 0x29da <__subsf3>
    2928:	9b 01       	movw	r18, r22
    292a:	ac 01       	movw	r20, r24
    292c:	c5 01       	movw	r24, r10
    292e:	b4 01       	movw	r22, r8
    2930:	0e 94 5f 15 	call	0x2abe	; 0x2abe <__divsf3>
    2934:	cf 91       	pop	r28
    2936:	ff 90       	pop	r15
    2938:	ef 90       	pop	r14
    293a:	df 90       	pop	r13
    293c:	cf 90       	pop	r12
    293e:	bf 90       	pop	r11
    2940:	af 90       	pop	r10
    2942:	9f 90       	pop	r9
    2944:	8f 90       	pop	r8
    2946:	08 95       	ret

00002948 <tsens_measure_probe1_temp>:
    2948:	8f 92       	push	r8
    294a:	9f 92       	push	r9
    294c:	af 92       	push	r10
    294e:	bf 92       	push	r11
    2950:	cf 92       	push	r12
    2952:	df 92       	push	r13
    2954:	ef 92       	push	r14
    2956:	ff 92       	push	r15
    2958:	0e 94 5b 14 	call	0x28b6	; 0x28b6 <tsens_measure1_resistance>
    295c:	0e 94 12 17 	call	0x2e24	; 0x2e24 <log>
    2960:	6b 01       	movw	r12, r22
    2962:	7c 01       	movw	r14, r24
    2964:	29 e4       	ldi	r18, 0x49	; 73
    2966:	36 e8       	ldi	r19, 0x86	; 134
    2968:	4c e7       	ldi	r20, 0x7C	; 124
    296a:	54 e3       	ldi	r21, 0x34	; 52
    296c:	0e 94 5a 17 	call	0x2eb4	; 0x2eb4 <__mulsf3>
    2970:	a7 01       	movw	r20, r14
    2972:	96 01       	movw	r18, r12
    2974:	0e 94 5a 17 	call	0x2eb4	; 0x2eb4 <__mulsf3>
    2978:	a7 01       	movw	r20, r14
    297a:	96 01       	movw	r18, r12
    297c:	0e 94 5a 17 	call	0x2eb4	; 0x2eb4 <__mulsf3>
    2980:	4b 01       	movw	r8, r22
    2982:	5c 01       	movw	r10, r24
    2984:	25 ee       	ldi	r18, 0xE5	; 229
    2986:	31 ec       	ldi	r19, 0xC1	; 193
    2988:	44 e5       	ldi	r20, 0x54	; 84
    298a:	59 e3       	ldi	r21, 0x39	; 57
    298c:	c7 01       	movw	r24, r14
    298e:	b6 01       	movw	r22, r12
    2990:	0e 94 5a 17 	call	0x2eb4	; 0x2eb4 <__mulsf3>
    2994:	21 ea       	ldi	r18, 0xA1	; 161
    2996:	38 ee       	ldi	r19, 0xE8	; 232
    2998:	4c ea       	ldi	r20, 0xAC	; 172
    299a:	5a e3       	ldi	r21, 0x3A	; 58
    299c:	0e 94 ee 14 	call	0x29dc	; 0x29dc <__addsf3>
    29a0:	9b 01       	movw	r18, r22
    29a2:	ac 01       	movw	r20, r24
    29a4:	c5 01       	movw	r24, r10
    29a6:	b4 01       	movw	r22, r8
    29a8:	0e 94 ee 14 	call	0x29dc	; 0x29dc <__addsf3>
    29ac:	9b 01       	movw	r18, r22
    29ae:	ac 01       	movw	r20, r24
    29b0:	60 e0       	ldi	r22, 0x00	; 0
    29b2:	70 e0       	ldi	r23, 0x00	; 0
    29b4:	80 e8       	ldi	r24, 0x80	; 128
    29b6:	9f e3       	ldi	r25, 0x3F	; 63
    29b8:	0e 94 5f 15 	call	0x2abe	; 0x2abe <__divsf3>
    29bc:	23 e3       	ldi	r18, 0x33	; 51
    29be:	33 e9       	ldi	r19, 0x93	; 147
    29c0:	48 e8       	ldi	r20, 0x88	; 136
    29c2:	53 e4       	ldi	r21, 0x43	; 67
    29c4:	0e 94 ed 14 	call	0x29da	; 0x29da <__subsf3>
    29c8:	ff 90       	pop	r15
    29ca:	ef 90       	pop	r14
    29cc:	df 90       	pop	r13
    29ce:	cf 90       	pop	r12
    29d0:	bf 90       	pop	r11
    29d2:	af 90       	pop	r10
    29d4:	9f 90       	pop	r9
    29d6:	8f 90       	pop	r8
    29d8:	08 95       	ret

000029da <__subsf3>:
    29da:	50 58       	subi	r21, 0x80	; 128

000029dc <__addsf3>:
    29dc:	bb 27       	eor	r27, r27
    29de:	aa 27       	eor	r26, r26
    29e0:	0e 94 05 15 	call	0x2a0a	; 0x2a0a <__addsf3x>
    29e4:	0c 94 cb 16 	jmp	0x2d96	; 0x2d96 <__fp_round>
    29e8:	0e 94 bd 16 	call	0x2d7a	; 0x2d7a <__fp_pscA>
    29ec:	38 f0       	brcs	.+14     	; 0x29fc <__addsf3+0x20>
    29ee:	0e 94 c4 16 	call	0x2d88	; 0x2d88 <__fp_pscB>
    29f2:	20 f0       	brcs	.+8      	; 0x29fc <__addsf3+0x20>
    29f4:	39 f4       	brne	.+14     	; 0x2a04 <__addsf3+0x28>
    29f6:	9f 3f       	cpi	r25, 0xFF	; 255
    29f8:	19 f4       	brne	.+6      	; 0x2a00 <__addsf3+0x24>
    29fa:	26 f4       	brtc	.+8      	; 0x2a04 <__addsf3+0x28>
    29fc:	0c 94 aa 16 	jmp	0x2d54	; 0x2d54 <__fp_nan>
    2a00:	0e f4       	brtc	.+2      	; 0x2a04 <__addsf3+0x28>
    2a02:	e0 95       	com	r30
    2a04:	e7 fb       	bst	r30, 7
    2a06:	0c 94 a4 16 	jmp	0x2d48	; 0x2d48 <__fp_inf>

00002a0a <__addsf3x>:
    2a0a:	e9 2f       	mov	r30, r25
    2a0c:	0e 94 dc 16 	call	0x2db8	; 0x2db8 <__fp_split3>
    2a10:	58 f3       	brcs	.-42     	; 0x29e8 <__addsf3+0xc>
    2a12:	ba 17       	cp	r27, r26
    2a14:	62 07       	cpc	r22, r18
    2a16:	73 07       	cpc	r23, r19
    2a18:	84 07       	cpc	r24, r20
    2a1a:	95 07       	cpc	r25, r21
    2a1c:	20 f0       	brcs	.+8      	; 0x2a26 <__addsf3x+0x1c>
    2a1e:	79 f4       	brne	.+30     	; 0x2a3e <__addsf3x+0x34>
    2a20:	a6 f5       	brtc	.+104    	; 0x2a8a <__addsf3x+0x80>
    2a22:	0c 94 fe 16 	jmp	0x2dfc	; 0x2dfc <__fp_zero>
    2a26:	0e f4       	brtc	.+2      	; 0x2a2a <__addsf3x+0x20>
    2a28:	e0 95       	com	r30
    2a2a:	0b 2e       	mov	r0, r27
    2a2c:	ba 2f       	mov	r27, r26
    2a2e:	a0 2d       	mov	r26, r0
    2a30:	0b 01       	movw	r0, r22
    2a32:	b9 01       	movw	r22, r18
    2a34:	90 01       	movw	r18, r0
    2a36:	0c 01       	movw	r0, r24
    2a38:	ca 01       	movw	r24, r20
    2a3a:	a0 01       	movw	r20, r0
    2a3c:	11 24       	eor	r1, r1
    2a3e:	ff 27       	eor	r31, r31
    2a40:	59 1b       	sub	r21, r25
    2a42:	99 f0       	breq	.+38     	; 0x2a6a <__addsf3x+0x60>
    2a44:	59 3f       	cpi	r21, 0xF9	; 249
    2a46:	50 f4       	brcc	.+20     	; 0x2a5c <__addsf3x+0x52>
    2a48:	50 3e       	cpi	r21, 0xE0	; 224
    2a4a:	68 f1       	brcs	.+90     	; 0x2aa6 <__addsf3x+0x9c>
    2a4c:	1a 16       	cp	r1, r26
    2a4e:	f0 40       	sbci	r31, 0x00	; 0
    2a50:	a2 2f       	mov	r26, r18
    2a52:	23 2f       	mov	r18, r19
    2a54:	34 2f       	mov	r19, r20
    2a56:	44 27       	eor	r20, r20
    2a58:	58 5f       	subi	r21, 0xF8	; 248
    2a5a:	f3 cf       	rjmp	.-26     	; 0x2a42 <__addsf3x+0x38>
    2a5c:	46 95       	lsr	r20
    2a5e:	37 95       	ror	r19
    2a60:	27 95       	ror	r18
    2a62:	a7 95       	ror	r26
    2a64:	f0 40       	sbci	r31, 0x00	; 0
    2a66:	53 95       	inc	r21
    2a68:	c9 f7       	brne	.-14     	; 0x2a5c <__addsf3x+0x52>
    2a6a:	7e f4       	brtc	.+30     	; 0x2a8a <__addsf3x+0x80>
    2a6c:	1f 16       	cp	r1, r31
    2a6e:	ba 0b       	sbc	r27, r26
    2a70:	62 0b       	sbc	r22, r18
    2a72:	73 0b       	sbc	r23, r19
    2a74:	84 0b       	sbc	r24, r20
    2a76:	ba f0       	brmi	.+46     	; 0x2aa6 <__addsf3x+0x9c>
    2a78:	91 50       	subi	r25, 0x01	; 1
    2a7a:	a1 f0       	breq	.+40     	; 0x2aa4 <__addsf3x+0x9a>
    2a7c:	ff 0f       	add	r31, r31
    2a7e:	bb 1f       	adc	r27, r27
    2a80:	66 1f       	adc	r22, r22
    2a82:	77 1f       	adc	r23, r23
    2a84:	88 1f       	adc	r24, r24
    2a86:	c2 f7       	brpl	.-16     	; 0x2a78 <__addsf3x+0x6e>
    2a88:	0e c0       	rjmp	.+28     	; 0x2aa6 <__addsf3x+0x9c>
    2a8a:	ba 0f       	add	r27, r26
    2a8c:	62 1f       	adc	r22, r18
    2a8e:	73 1f       	adc	r23, r19
    2a90:	84 1f       	adc	r24, r20
    2a92:	48 f4       	brcc	.+18     	; 0x2aa6 <__addsf3x+0x9c>
    2a94:	87 95       	ror	r24
    2a96:	77 95       	ror	r23
    2a98:	67 95       	ror	r22
    2a9a:	b7 95       	ror	r27
    2a9c:	f7 95       	ror	r31
    2a9e:	9e 3f       	cpi	r25, 0xFE	; 254
    2aa0:	08 f0       	brcs	.+2      	; 0x2aa4 <__addsf3x+0x9a>
    2aa2:	b0 cf       	rjmp	.-160    	; 0x2a04 <__addsf3+0x28>
    2aa4:	93 95       	inc	r25
    2aa6:	88 0f       	add	r24, r24
    2aa8:	08 f0       	brcs	.+2      	; 0x2aac <__addsf3x+0xa2>
    2aaa:	99 27       	eor	r25, r25
    2aac:	ee 0f       	add	r30, r30
    2aae:	97 95       	ror	r25
    2ab0:	87 95       	ror	r24
    2ab2:	08 95       	ret

00002ab4 <__cmpsf2>:
    2ab4:	0e 94 80 16 	call	0x2d00	; 0x2d00 <__fp_cmp>
    2ab8:	08 f4       	brcc	.+2      	; 0x2abc <__cmpsf2+0x8>
    2aba:	81 e0       	ldi	r24, 0x01	; 1
    2abc:	08 95       	ret

00002abe <__divsf3>:
    2abe:	0e 94 73 15 	call	0x2ae6	; 0x2ae6 <__divsf3x>
    2ac2:	0c 94 cb 16 	jmp	0x2d96	; 0x2d96 <__fp_round>
    2ac6:	0e 94 c4 16 	call	0x2d88	; 0x2d88 <__fp_pscB>
    2aca:	58 f0       	brcs	.+22     	; 0x2ae2 <__divsf3+0x24>
    2acc:	0e 94 bd 16 	call	0x2d7a	; 0x2d7a <__fp_pscA>
    2ad0:	40 f0       	brcs	.+16     	; 0x2ae2 <__divsf3+0x24>
    2ad2:	29 f4       	brne	.+10     	; 0x2ade <__divsf3+0x20>
    2ad4:	5f 3f       	cpi	r21, 0xFF	; 255
    2ad6:	29 f0       	breq	.+10     	; 0x2ae2 <__divsf3+0x24>
    2ad8:	0c 94 a4 16 	jmp	0x2d48	; 0x2d48 <__fp_inf>
    2adc:	51 11       	cpse	r21, r1
    2ade:	0c 94 ff 16 	jmp	0x2dfe	; 0x2dfe <__fp_szero>
    2ae2:	0c 94 aa 16 	jmp	0x2d54	; 0x2d54 <__fp_nan>

00002ae6 <__divsf3x>:
    2ae6:	0e 94 dc 16 	call	0x2db8	; 0x2db8 <__fp_split3>
    2aea:	68 f3       	brcs	.-38     	; 0x2ac6 <__divsf3+0x8>

00002aec <__divsf3_pse>:
    2aec:	99 23       	and	r25, r25
    2aee:	b1 f3       	breq	.-20     	; 0x2adc <__divsf3+0x1e>
    2af0:	55 23       	and	r21, r21
    2af2:	91 f3       	breq	.-28     	; 0x2ad8 <__divsf3+0x1a>
    2af4:	95 1b       	sub	r25, r21
    2af6:	55 0b       	sbc	r21, r21
    2af8:	bb 27       	eor	r27, r27
    2afa:	aa 27       	eor	r26, r26
    2afc:	62 17       	cp	r22, r18
    2afe:	73 07       	cpc	r23, r19
    2b00:	84 07       	cpc	r24, r20
    2b02:	38 f0       	brcs	.+14     	; 0x2b12 <__divsf3_pse+0x26>
    2b04:	9f 5f       	subi	r25, 0xFF	; 255
    2b06:	5f 4f       	sbci	r21, 0xFF	; 255
    2b08:	22 0f       	add	r18, r18
    2b0a:	33 1f       	adc	r19, r19
    2b0c:	44 1f       	adc	r20, r20
    2b0e:	aa 1f       	adc	r26, r26
    2b10:	a9 f3       	breq	.-22     	; 0x2afc <__divsf3_pse+0x10>
    2b12:	35 d0       	rcall	.+106    	; 0x2b7e <__divsf3_pse+0x92>
    2b14:	0e 2e       	mov	r0, r30
    2b16:	3a f0       	brmi	.+14     	; 0x2b26 <__divsf3_pse+0x3a>
    2b18:	e0 e8       	ldi	r30, 0x80	; 128
    2b1a:	32 d0       	rcall	.+100    	; 0x2b80 <__divsf3_pse+0x94>
    2b1c:	91 50       	subi	r25, 0x01	; 1
    2b1e:	50 40       	sbci	r21, 0x00	; 0
    2b20:	e6 95       	lsr	r30
    2b22:	00 1c       	adc	r0, r0
    2b24:	ca f7       	brpl	.-14     	; 0x2b18 <__divsf3_pse+0x2c>
    2b26:	2b d0       	rcall	.+86     	; 0x2b7e <__divsf3_pse+0x92>
    2b28:	fe 2f       	mov	r31, r30
    2b2a:	29 d0       	rcall	.+82     	; 0x2b7e <__divsf3_pse+0x92>
    2b2c:	66 0f       	add	r22, r22
    2b2e:	77 1f       	adc	r23, r23
    2b30:	88 1f       	adc	r24, r24
    2b32:	bb 1f       	adc	r27, r27
    2b34:	26 17       	cp	r18, r22
    2b36:	37 07       	cpc	r19, r23
    2b38:	48 07       	cpc	r20, r24
    2b3a:	ab 07       	cpc	r26, r27
    2b3c:	b0 e8       	ldi	r27, 0x80	; 128
    2b3e:	09 f0       	breq	.+2      	; 0x2b42 <__divsf3_pse+0x56>
    2b40:	bb 0b       	sbc	r27, r27
    2b42:	80 2d       	mov	r24, r0
    2b44:	bf 01       	movw	r22, r30
    2b46:	ff 27       	eor	r31, r31
    2b48:	93 58       	subi	r25, 0x83	; 131
    2b4a:	5f 4f       	sbci	r21, 0xFF	; 255
    2b4c:	3a f0       	brmi	.+14     	; 0x2b5c <__divsf3_pse+0x70>
    2b4e:	9e 3f       	cpi	r25, 0xFE	; 254
    2b50:	51 05       	cpc	r21, r1
    2b52:	78 f0       	brcs	.+30     	; 0x2b72 <__divsf3_pse+0x86>
    2b54:	0c 94 a4 16 	jmp	0x2d48	; 0x2d48 <__fp_inf>
    2b58:	0c 94 ff 16 	jmp	0x2dfe	; 0x2dfe <__fp_szero>
    2b5c:	5f 3f       	cpi	r21, 0xFF	; 255
    2b5e:	e4 f3       	brlt	.-8      	; 0x2b58 <__divsf3_pse+0x6c>
    2b60:	98 3e       	cpi	r25, 0xE8	; 232
    2b62:	d4 f3       	brlt	.-12     	; 0x2b58 <__divsf3_pse+0x6c>
    2b64:	86 95       	lsr	r24
    2b66:	77 95       	ror	r23
    2b68:	67 95       	ror	r22
    2b6a:	b7 95       	ror	r27
    2b6c:	f7 95       	ror	r31
    2b6e:	9f 5f       	subi	r25, 0xFF	; 255
    2b70:	c9 f7       	brne	.-14     	; 0x2b64 <__divsf3_pse+0x78>
    2b72:	88 0f       	add	r24, r24
    2b74:	91 1d       	adc	r25, r1
    2b76:	96 95       	lsr	r25
    2b78:	87 95       	ror	r24
    2b7a:	97 f9       	bld	r25, 7
    2b7c:	08 95       	ret
    2b7e:	e1 e0       	ldi	r30, 0x01	; 1
    2b80:	66 0f       	add	r22, r22
    2b82:	77 1f       	adc	r23, r23
    2b84:	88 1f       	adc	r24, r24
    2b86:	bb 1f       	adc	r27, r27
    2b88:	62 17       	cp	r22, r18
    2b8a:	73 07       	cpc	r23, r19
    2b8c:	84 07       	cpc	r24, r20
    2b8e:	ba 07       	cpc	r27, r26
    2b90:	20 f0       	brcs	.+8      	; 0x2b9a <__divsf3_pse+0xae>
    2b92:	62 1b       	sub	r22, r18
    2b94:	73 0b       	sbc	r23, r19
    2b96:	84 0b       	sbc	r24, r20
    2b98:	ba 0b       	sbc	r27, r26
    2b9a:	ee 1f       	adc	r30, r30
    2b9c:	88 f7       	brcc	.-30     	; 0x2b80 <__divsf3_pse+0x94>
    2b9e:	e0 95       	com	r30
    2ba0:	08 95       	ret

00002ba2 <__fixsfdi>:
    2ba2:	be e3       	ldi	r27, 0x3E	; 62
    2ba4:	04 d0       	rcall	.+8      	; 0x2bae <__fixunssfdi+0x2>
    2ba6:	08 f4       	brcc	.+2      	; 0x2baa <__fixsfdi+0x8>
    2ba8:	90 e8       	ldi	r25, 0x80	; 128
    2baa:	08 95       	ret

00002bac <__fixunssfdi>:
    2bac:	bf e3       	ldi	r27, 0x3F	; 63
    2bae:	22 27       	eor	r18, r18
    2bb0:	33 27       	eor	r19, r19
    2bb2:	a9 01       	movw	r20, r18
    2bb4:	0e 94 e4 16 	call	0x2dc8	; 0x2dc8 <__fp_splitA>
    2bb8:	60 f1       	brcs	.+88     	; 0x2c12 <__fixunssfdi+0x66>
    2bba:	9f 57       	subi	r25, 0x7F	; 127
    2bbc:	48 f1       	brcs	.+82     	; 0x2c10 <__fixunssfdi+0x64>
    2bbe:	b9 17       	cp	r27, r25
    2bc0:	40 f1       	brcs	.+80     	; 0x2c12 <__fixunssfdi+0x66>
    2bc2:	bf e3       	ldi	r27, 0x3F	; 63
    2bc4:	b9 1b       	sub	r27, r25
    2bc6:	99 27       	eor	r25, r25
    2bc8:	b8 50       	subi	r27, 0x08	; 8
    2bca:	3a f4       	brpl	.+14     	; 0x2bda <__fixunssfdi+0x2e>
    2bcc:	66 0f       	add	r22, r22
    2bce:	77 1f       	adc	r23, r23
    2bd0:	88 1f       	adc	r24, r24
    2bd2:	99 1f       	adc	r25, r25
    2bd4:	b3 95       	inc	r27
    2bd6:	d2 f3       	brmi	.-12     	; 0x2bcc <__fixunssfdi+0x20>
    2bd8:	16 c0       	rjmp	.+44     	; 0x2c06 <__fixunssfdi+0x5a>
    2bda:	b8 50       	subi	r27, 0x08	; 8
    2bdc:	4a f0       	brmi	.+18     	; 0x2bf0 <__fixunssfdi+0x44>
    2bde:	23 2f       	mov	r18, r19
    2be0:	34 2f       	mov	r19, r20
    2be2:	45 2f       	mov	r20, r21
    2be4:	56 2f       	mov	r21, r22
    2be6:	67 2f       	mov	r22, r23
    2be8:	78 2f       	mov	r23, r24
    2bea:	88 27       	eor	r24, r24
    2bec:	b8 50       	subi	r27, 0x08	; 8
    2bee:	ba f7       	brpl	.-18     	; 0x2bde <__fixunssfdi+0x32>
    2bf0:	b8 5f       	subi	r27, 0xF8	; 248
    2bf2:	49 f0       	breq	.+18     	; 0x2c06 <__fixunssfdi+0x5a>
    2bf4:	86 95       	lsr	r24
    2bf6:	77 95       	ror	r23
    2bf8:	67 95       	ror	r22
    2bfa:	57 95       	ror	r21
    2bfc:	47 95       	ror	r20
    2bfe:	37 95       	ror	r19
    2c00:	27 95       	ror	r18
    2c02:	ba 95       	dec	r27
    2c04:	b9 f7       	brne	.-18     	; 0x2bf4 <__fixunssfdi+0x48>
    2c06:	16 f4       	brtc	.+4      	; 0x2c0c <__fixunssfdi+0x60>
    2c08:	0e 94 ad 16 	call	0x2d5a	; 0x2d5a <__fp_negdi>
    2c0c:	88 94       	clc
    2c0e:	08 95       	ret
    2c10:	88 94       	clc
    2c12:	60 e0       	ldi	r22, 0x00	; 0
    2c14:	70 e0       	ldi	r23, 0x00	; 0
    2c16:	cb 01       	movw	r24, r22
    2c18:	08 95       	ret

00002c1a <__fixsfsi>:
    2c1a:	0e 94 14 16 	call	0x2c28	; 0x2c28 <__fixunssfsi>
    2c1e:	68 94       	set
    2c20:	b1 11       	cpse	r27, r1
    2c22:	0c 94 ff 16 	jmp	0x2dfe	; 0x2dfe <__fp_szero>
    2c26:	08 95       	ret

00002c28 <__fixunssfsi>:
    2c28:	0e 94 e4 16 	call	0x2dc8	; 0x2dc8 <__fp_splitA>
    2c2c:	88 f0       	brcs	.+34     	; 0x2c50 <__fixunssfsi+0x28>
    2c2e:	9f 57       	subi	r25, 0x7F	; 127
    2c30:	98 f0       	brcs	.+38     	; 0x2c58 <__fixunssfsi+0x30>
    2c32:	b9 2f       	mov	r27, r25
    2c34:	99 27       	eor	r25, r25
    2c36:	b7 51       	subi	r27, 0x17	; 23
    2c38:	b0 f0       	brcs	.+44     	; 0x2c66 <__fixunssfsi+0x3e>
    2c3a:	e1 f0       	breq	.+56     	; 0x2c74 <__fixunssfsi+0x4c>
    2c3c:	66 0f       	add	r22, r22
    2c3e:	77 1f       	adc	r23, r23
    2c40:	88 1f       	adc	r24, r24
    2c42:	99 1f       	adc	r25, r25
    2c44:	1a f0       	brmi	.+6      	; 0x2c4c <__fixunssfsi+0x24>
    2c46:	ba 95       	dec	r27
    2c48:	c9 f7       	brne	.-14     	; 0x2c3c <__fixunssfsi+0x14>
    2c4a:	14 c0       	rjmp	.+40     	; 0x2c74 <__fixunssfsi+0x4c>
    2c4c:	b1 30       	cpi	r27, 0x01	; 1
    2c4e:	91 f0       	breq	.+36     	; 0x2c74 <__fixunssfsi+0x4c>
    2c50:	0e 94 fe 16 	call	0x2dfc	; 0x2dfc <__fp_zero>
    2c54:	b1 e0       	ldi	r27, 0x01	; 1
    2c56:	08 95       	ret
    2c58:	0c 94 fe 16 	jmp	0x2dfc	; 0x2dfc <__fp_zero>
    2c5c:	67 2f       	mov	r22, r23
    2c5e:	78 2f       	mov	r23, r24
    2c60:	88 27       	eor	r24, r24
    2c62:	b8 5f       	subi	r27, 0xF8	; 248
    2c64:	39 f0       	breq	.+14     	; 0x2c74 <__fixunssfsi+0x4c>
    2c66:	b9 3f       	cpi	r27, 0xF9	; 249
    2c68:	cc f3       	brlt	.-14     	; 0x2c5c <__fixunssfsi+0x34>
    2c6a:	86 95       	lsr	r24
    2c6c:	77 95       	ror	r23
    2c6e:	67 95       	ror	r22
    2c70:	b3 95       	inc	r27
    2c72:	d9 f7       	brne	.-10     	; 0x2c6a <__fixunssfsi+0x42>
    2c74:	3e f4       	brtc	.+14     	; 0x2c84 <__fixunssfsi+0x5c>
    2c76:	90 95       	com	r25
    2c78:	80 95       	com	r24
    2c7a:	70 95       	com	r23
    2c7c:	61 95       	neg	r22
    2c7e:	7f 4f       	sbci	r23, 0xFF	; 255
    2c80:	8f 4f       	sbci	r24, 0xFF	; 255
    2c82:	9f 4f       	sbci	r25, 0xFF	; 255
    2c84:	08 95       	ret

00002c86 <__floatunsisf>:
    2c86:	e8 94       	clt
    2c88:	09 c0       	rjmp	.+18     	; 0x2c9c <__floatsisf+0x12>

00002c8a <__floatsisf>:
    2c8a:	97 fb       	bst	r25, 7
    2c8c:	3e f4       	brtc	.+14     	; 0x2c9c <__floatsisf+0x12>
    2c8e:	90 95       	com	r25
    2c90:	80 95       	com	r24
    2c92:	70 95       	com	r23
    2c94:	61 95       	neg	r22
    2c96:	7f 4f       	sbci	r23, 0xFF	; 255
    2c98:	8f 4f       	sbci	r24, 0xFF	; 255
    2c9a:	9f 4f       	sbci	r25, 0xFF	; 255
    2c9c:	99 23       	and	r25, r25
    2c9e:	a9 f0       	breq	.+42     	; 0x2cca <__floatsisf+0x40>
    2ca0:	f9 2f       	mov	r31, r25
    2ca2:	96 e9       	ldi	r25, 0x96	; 150
    2ca4:	bb 27       	eor	r27, r27
    2ca6:	93 95       	inc	r25
    2ca8:	f6 95       	lsr	r31
    2caa:	87 95       	ror	r24
    2cac:	77 95       	ror	r23
    2cae:	67 95       	ror	r22
    2cb0:	b7 95       	ror	r27
    2cb2:	f1 11       	cpse	r31, r1
    2cb4:	f8 cf       	rjmp	.-16     	; 0x2ca6 <__floatsisf+0x1c>
    2cb6:	fa f4       	brpl	.+62     	; 0x2cf6 <__floatsisf+0x6c>
    2cb8:	bb 0f       	add	r27, r27
    2cba:	11 f4       	brne	.+4      	; 0x2cc0 <__floatsisf+0x36>
    2cbc:	60 ff       	sbrs	r22, 0
    2cbe:	1b c0       	rjmp	.+54     	; 0x2cf6 <__floatsisf+0x6c>
    2cc0:	6f 5f       	subi	r22, 0xFF	; 255
    2cc2:	7f 4f       	sbci	r23, 0xFF	; 255
    2cc4:	8f 4f       	sbci	r24, 0xFF	; 255
    2cc6:	9f 4f       	sbci	r25, 0xFF	; 255
    2cc8:	16 c0       	rjmp	.+44     	; 0x2cf6 <__floatsisf+0x6c>
    2cca:	88 23       	and	r24, r24
    2ccc:	11 f0       	breq	.+4      	; 0x2cd2 <__floatsisf+0x48>
    2cce:	96 e9       	ldi	r25, 0x96	; 150
    2cd0:	11 c0       	rjmp	.+34     	; 0x2cf4 <__floatsisf+0x6a>
    2cd2:	77 23       	and	r23, r23
    2cd4:	21 f0       	breq	.+8      	; 0x2cde <__floatsisf+0x54>
    2cd6:	9e e8       	ldi	r25, 0x8E	; 142
    2cd8:	87 2f       	mov	r24, r23
    2cda:	76 2f       	mov	r23, r22
    2cdc:	05 c0       	rjmp	.+10     	; 0x2ce8 <__floatsisf+0x5e>
    2cde:	66 23       	and	r22, r22
    2ce0:	71 f0       	breq	.+28     	; 0x2cfe <__floatsisf+0x74>
    2ce2:	96 e8       	ldi	r25, 0x86	; 134
    2ce4:	86 2f       	mov	r24, r22
    2ce6:	70 e0       	ldi	r23, 0x00	; 0
    2ce8:	60 e0       	ldi	r22, 0x00	; 0
    2cea:	2a f0       	brmi	.+10     	; 0x2cf6 <__floatsisf+0x6c>
    2cec:	9a 95       	dec	r25
    2cee:	66 0f       	add	r22, r22
    2cf0:	77 1f       	adc	r23, r23
    2cf2:	88 1f       	adc	r24, r24
    2cf4:	da f7       	brpl	.-10     	; 0x2cec <__floatsisf+0x62>
    2cf6:	88 0f       	add	r24, r24
    2cf8:	96 95       	lsr	r25
    2cfa:	87 95       	ror	r24
    2cfc:	97 f9       	bld	r25, 7
    2cfe:	08 95       	ret

00002d00 <__fp_cmp>:
    2d00:	99 0f       	add	r25, r25
    2d02:	00 08       	sbc	r0, r0
    2d04:	55 0f       	add	r21, r21
    2d06:	aa 0b       	sbc	r26, r26
    2d08:	e0 e8       	ldi	r30, 0x80	; 128
    2d0a:	fe ef       	ldi	r31, 0xFE	; 254
    2d0c:	16 16       	cp	r1, r22
    2d0e:	17 06       	cpc	r1, r23
    2d10:	e8 07       	cpc	r30, r24
    2d12:	f9 07       	cpc	r31, r25
    2d14:	c0 f0       	brcs	.+48     	; 0x2d46 <__fp_cmp+0x46>
    2d16:	12 16       	cp	r1, r18
    2d18:	13 06       	cpc	r1, r19
    2d1a:	e4 07       	cpc	r30, r20
    2d1c:	f5 07       	cpc	r31, r21
    2d1e:	98 f0       	brcs	.+38     	; 0x2d46 <__fp_cmp+0x46>
    2d20:	62 1b       	sub	r22, r18
    2d22:	73 0b       	sbc	r23, r19
    2d24:	84 0b       	sbc	r24, r20
    2d26:	95 0b       	sbc	r25, r21
    2d28:	39 f4       	brne	.+14     	; 0x2d38 <__fp_cmp+0x38>
    2d2a:	0a 26       	eor	r0, r26
    2d2c:	61 f0       	breq	.+24     	; 0x2d46 <__fp_cmp+0x46>
    2d2e:	23 2b       	or	r18, r19
    2d30:	24 2b       	or	r18, r20
    2d32:	25 2b       	or	r18, r21
    2d34:	21 f4       	brne	.+8      	; 0x2d3e <__fp_cmp+0x3e>
    2d36:	08 95       	ret
    2d38:	0a 26       	eor	r0, r26
    2d3a:	09 f4       	brne	.+2      	; 0x2d3e <__fp_cmp+0x3e>
    2d3c:	a1 40       	sbci	r26, 0x01	; 1
    2d3e:	a6 95       	lsr	r26
    2d40:	8f ef       	ldi	r24, 0xFF	; 255
    2d42:	81 1d       	adc	r24, r1
    2d44:	81 1d       	adc	r24, r1
    2d46:	08 95       	ret

00002d48 <__fp_inf>:
    2d48:	97 f9       	bld	r25, 7
    2d4a:	9f 67       	ori	r25, 0x7F	; 127
    2d4c:	80 e8       	ldi	r24, 0x80	; 128
    2d4e:	70 e0       	ldi	r23, 0x00	; 0
    2d50:	60 e0       	ldi	r22, 0x00	; 0
    2d52:	08 95       	ret

00002d54 <__fp_nan>:
    2d54:	9f ef       	ldi	r25, 0xFF	; 255
    2d56:	80 ec       	ldi	r24, 0xC0	; 192
    2d58:	08 95       	ret

00002d5a <__fp_negdi>:
    2d5a:	90 95       	com	r25
    2d5c:	80 95       	com	r24
    2d5e:	70 95       	com	r23
    2d60:	60 95       	com	r22
    2d62:	50 95       	com	r21
    2d64:	40 95       	com	r20
    2d66:	30 95       	com	r19
    2d68:	21 95       	neg	r18
    2d6a:	3f 4f       	sbci	r19, 0xFF	; 255
    2d6c:	4f 4f       	sbci	r20, 0xFF	; 255
    2d6e:	5f 4f       	sbci	r21, 0xFF	; 255
    2d70:	6f 4f       	sbci	r22, 0xFF	; 255
    2d72:	7f 4f       	sbci	r23, 0xFF	; 255
    2d74:	8f 4f       	sbci	r24, 0xFF	; 255
    2d76:	9f 4f       	sbci	r25, 0xFF	; 255
    2d78:	08 95       	ret

00002d7a <__fp_pscA>:
    2d7a:	00 24       	eor	r0, r0
    2d7c:	0a 94       	dec	r0
    2d7e:	16 16       	cp	r1, r22
    2d80:	17 06       	cpc	r1, r23
    2d82:	18 06       	cpc	r1, r24
    2d84:	09 06       	cpc	r0, r25
    2d86:	08 95       	ret

00002d88 <__fp_pscB>:
    2d88:	00 24       	eor	r0, r0
    2d8a:	0a 94       	dec	r0
    2d8c:	12 16       	cp	r1, r18
    2d8e:	13 06       	cpc	r1, r19
    2d90:	14 06       	cpc	r1, r20
    2d92:	05 06       	cpc	r0, r21
    2d94:	08 95       	ret

00002d96 <__fp_round>:
    2d96:	09 2e       	mov	r0, r25
    2d98:	03 94       	inc	r0
    2d9a:	00 0c       	add	r0, r0
    2d9c:	11 f4       	brne	.+4      	; 0x2da2 <__fp_round+0xc>
    2d9e:	88 23       	and	r24, r24
    2da0:	52 f0       	brmi	.+20     	; 0x2db6 <__fp_round+0x20>
    2da2:	bb 0f       	add	r27, r27
    2da4:	40 f4       	brcc	.+16     	; 0x2db6 <__fp_round+0x20>
    2da6:	bf 2b       	or	r27, r31
    2da8:	11 f4       	brne	.+4      	; 0x2dae <__fp_round+0x18>
    2daa:	60 ff       	sbrs	r22, 0
    2dac:	04 c0       	rjmp	.+8      	; 0x2db6 <__fp_round+0x20>
    2dae:	6f 5f       	subi	r22, 0xFF	; 255
    2db0:	7f 4f       	sbci	r23, 0xFF	; 255
    2db2:	8f 4f       	sbci	r24, 0xFF	; 255
    2db4:	9f 4f       	sbci	r25, 0xFF	; 255
    2db6:	08 95       	ret

00002db8 <__fp_split3>:
    2db8:	57 fd       	sbrc	r21, 7
    2dba:	90 58       	subi	r25, 0x80	; 128
    2dbc:	44 0f       	add	r20, r20
    2dbe:	55 1f       	adc	r21, r21
    2dc0:	59 f0       	breq	.+22     	; 0x2dd8 <__fp_splitA+0x10>
    2dc2:	5f 3f       	cpi	r21, 0xFF	; 255
    2dc4:	71 f0       	breq	.+28     	; 0x2de2 <__fp_splitA+0x1a>
    2dc6:	47 95       	ror	r20

00002dc8 <__fp_splitA>:
    2dc8:	88 0f       	add	r24, r24
    2dca:	97 fb       	bst	r25, 7
    2dcc:	99 1f       	adc	r25, r25
    2dce:	61 f0       	breq	.+24     	; 0x2de8 <__fp_splitA+0x20>
    2dd0:	9f 3f       	cpi	r25, 0xFF	; 255
    2dd2:	79 f0       	breq	.+30     	; 0x2df2 <__fp_splitA+0x2a>
    2dd4:	87 95       	ror	r24
    2dd6:	08 95       	ret
    2dd8:	12 16       	cp	r1, r18
    2dda:	13 06       	cpc	r1, r19
    2ddc:	14 06       	cpc	r1, r20
    2dde:	55 1f       	adc	r21, r21
    2de0:	f2 cf       	rjmp	.-28     	; 0x2dc6 <__fp_split3+0xe>
    2de2:	46 95       	lsr	r20
    2de4:	f1 df       	rcall	.-30     	; 0x2dc8 <__fp_splitA>
    2de6:	08 c0       	rjmp	.+16     	; 0x2df8 <__fp_splitA+0x30>
    2de8:	16 16       	cp	r1, r22
    2dea:	17 06       	cpc	r1, r23
    2dec:	18 06       	cpc	r1, r24
    2dee:	99 1f       	adc	r25, r25
    2df0:	f1 cf       	rjmp	.-30     	; 0x2dd4 <__fp_splitA+0xc>
    2df2:	86 95       	lsr	r24
    2df4:	71 05       	cpc	r23, r1
    2df6:	61 05       	cpc	r22, r1
    2df8:	08 94       	sec
    2dfa:	08 95       	ret

00002dfc <__fp_zero>:
    2dfc:	e8 94       	clt

00002dfe <__fp_szero>:
    2dfe:	bb 27       	eor	r27, r27
    2e00:	66 27       	eor	r22, r22
    2e02:	77 27       	eor	r23, r23
    2e04:	cb 01       	movw	r24, r22
    2e06:	97 f9       	bld	r25, 7
    2e08:	08 95       	ret

00002e0a <__gesf2>:
    2e0a:	0e 94 80 16 	call	0x2d00	; 0x2d00 <__fp_cmp>
    2e0e:	08 f4       	brcc	.+2      	; 0x2e12 <__gesf2+0x8>
    2e10:	8f ef       	ldi	r24, 0xFF	; 255
    2e12:	08 95       	ret
    2e14:	16 f0       	brts	.+4      	; 0x2e1a <__gesf2+0x10>
    2e16:	0c 94 c7 17 	jmp	0x2f8e	; 0x2f8e <__fp_mpack>
    2e1a:	0c 94 aa 16 	jmp	0x2d54	; 0x2d54 <__fp_nan>
    2e1e:	68 94       	set
    2e20:	0c 94 a4 16 	jmp	0x2d48	; 0x2d48 <__fp_inf>

00002e24 <log>:
    2e24:	0e 94 e4 16 	call	0x2dc8	; 0x2dc8 <__fp_splitA>
    2e28:	a8 f3       	brcs	.-22     	; 0x2e14 <__gesf2+0xa>
    2e2a:	99 23       	and	r25, r25
    2e2c:	c1 f3       	breq	.-16     	; 0x2e1e <__gesf2+0x14>
    2e2e:	ae f3       	brts	.-22     	; 0x2e1a <__gesf2+0x10>
    2e30:	df 93       	push	r29
    2e32:	cf 93       	push	r28
    2e34:	1f 93       	push	r17
    2e36:	0f 93       	push	r16
    2e38:	ff 92       	push	r15
    2e3a:	c9 2f       	mov	r28, r25
    2e3c:	dd 27       	eor	r29, r29
    2e3e:	88 23       	and	r24, r24
    2e40:	2a f0       	brmi	.+10     	; 0x2e4c <log+0x28>
    2e42:	21 97       	sbiw	r28, 0x01	; 1
    2e44:	66 0f       	add	r22, r22
    2e46:	77 1f       	adc	r23, r23
    2e48:	88 1f       	adc	r24, r24
    2e4a:	da f7       	brpl	.-10     	; 0x2e42 <log+0x1e>
    2e4c:	20 e0       	ldi	r18, 0x00	; 0
    2e4e:	30 e0       	ldi	r19, 0x00	; 0
    2e50:	40 e8       	ldi	r20, 0x80	; 128
    2e52:	5f eb       	ldi	r21, 0xBF	; 191
    2e54:	9f e3       	ldi	r25, 0x3F	; 63
    2e56:	88 39       	cpi	r24, 0x98	; 152
    2e58:	20 f0       	brcs	.+8      	; 0x2e62 <log+0x3e>
    2e5a:	80 3e       	cpi	r24, 0xE0	; 224
    2e5c:	38 f0       	brcs	.+14     	; 0x2e6c <log+0x48>
    2e5e:	21 96       	adiw	r28, 0x01	; 1
    2e60:	8f 77       	andi	r24, 0x7F	; 127
    2e62:	0e 94 ee 14 	call	0x29dc	; 0x29dc <__addsf3>
    2e66:	ec e7       	ldi	r30, 0x7C	; 124
    2e68:	f0 e0       	ldi	r31, 0x00	; 0
    2e6a:	04 c0       	rjmp	.+8      	; 0x2e74 <log+0x50>
    2e6c:	0e 94 ee 14 	call	0x29dc	; 0x29dc <__addsf3>
    2e70:	e9 ea       	ldi	r30, 0xA9	; 169
    2e72:	f0 e0       	ldi	r31, 0x00	; 0
    2e74:	0e 94 d5 17 	call	0x2faa	; 0x2faa <__fp_powser>
    2e78:	8b 01       	movw	r16, r22
    2e7a:	be 01       	movw	r22, r28
    2e7c:	ec 01       	movw	r28, r24
    2e7e:	fb 2e       	mov	r15, r27
    2e80:	6f 57       	subi	r22, 0x7F	; 127
    2e82:	71 09       	sbc	r23, r1
    2e84:	75 95       	asr	r23
    2e86:	77 1f       	adc	r23, r23
    2e88:	88 0b       	sbc	r24, r24
    2e8a:	99 0b       	sbc	r25, r25
    2e8c:	0e 94 45 16 	call	0x2c8a	; 0x2c8a <__floatsisf>
    2e90:	28 e1       	ldi	r18, 0x18	; 24
    2e92:	32 e7       	ldi	r19, 0x72	; 114
    2e94:	41 e3       	ldi	r20, 0x31	; 49
    2e96:	5f e3       	ldi	r21, 0x3F	; 63
    2e98:	0e 94 6d 17 	call	0x2eda	; 0x2eda <__mulsf3x>
    2e9c:	af 2d       	mov	r26, r15
    2e9e:	98 01       	movw	r18, r16
    2ea0:	ae 01       	movw	r20, r28
    2ea2:	ff 90       	pop	r15
    2ea4:	0f 91       	pop	r16
    2ea6:	1f 91       	pop	r17
    2ea8:	cf 91       	pop	r28
    2eaa:	df 91       	pop	r29
    2eac:	0e 94 05 15 	call	0x2a0a	; 0x2a0a <__addsf3x>
    2eb0:	0c 94 cb 16 	jmp	0x2d96	; 0x2d96 <__fp_round>

00002eb4 <__mulsf3>:
    2eb4:	0e 94 6d 17 	call	0x2eda	; 0x2eda <__mulsf3x>
    2eb8:	0c 94 cb 16 	jmp	0x2d96	; 0x2d96 <__fp_round>
    2ebc:	0e 94 bd 16 	call	0x2d7a	; 0x2d7a <__fp_pscA>
    2ec0:	38 f0       	brcs	.+14     	; 0x2ed0 <__mulsf3+0x1c>
    2ec2:	0e 94 c4 16 	call	0x2d88	; 0x2d88 <__fp_pscB>
    2ec6:	20 f0       	brcs	.+8      	; 0x2ed0 <__mulsf3+0x1c>
    2ec8:	95 23       	and	r25, r21
    2eca:	11 f0       	breq	.+4      	; 0x2ed0 <__mulsf3+0x1c>
    2ecc:	0c 94 a4 16 	jmp	0x2d48	; 0x2d48 <__fp_inf>
    2ed0:	0c 94 aa 16 	jmp	0x2d54	; 0x2d54 <__fp_nan>
    2ed4:	11 24       	eor	r1, r1
    2ed6:	0c 94 ff 16 	jmp	0x2dfe	; 0x2dfe <__fp_szero>

00002eda <__mulsf3x>:
    2eda:	0e 94 dc 16 	call	0x2db8	; 0x2db8 <__fp_split3>
    2ede:	70 f3       	brcs	.-36     	; 0x2ebc <__mulsf3+0x8>

00002ee0 <__mulsf3_pse>:
    2ee0:	95 9f       	mul	r25, r21
    2ee2:	c1 f3       	breq	.-16     	; 0x2ed4 <__mulsf3+0x20>
    2ee4:	95 0f       	add	r25, r21
    2ee6:	50 e0       	ldi	r21, 0x00	; 0
    2ee8:	55 1f       	adc	r21, r21
    2eea:	62 9f       	mul	r22, r18
    2eec:	f0 01       	movw	r30, r0
    2eee:	72 9f       	mul	r23, r18
    2ef0:	bb 27       	eor	r27, r27
    2ef2:	f0 0d       	add	r31, r0
    2ef4:	b1 1d       	adc	r27, r1
    2ef6:	63 9f       	mul	r22, r19
    2ef8:	aa 27       	eor	r26, r26
    2efa:	f0 0d       	add	r31, r0
    2efc:	b1 1d       	adc	r27, r1
    2efe:	aa 1f       	adc	r26, r26
    2f00:	64 9f       	mul	r22, r20
    2f02:	66 27       	eor	r22, r22
    2f04:	b0 0d       	add	r27, r0
    2f06:	a1 1d       	adc	r26, r1
    2f08:	66 1f       	adc	r22, r22
    2f0a:	82 9f       	mul	r24, r18
    2f0c:	22 27       	eor	r18, r18
    2f0e:	b0 0d       	add	r27, r0
    2f10:	a1 1d       	adc	r26, r1
    2f12:	62 1f       	adc	r22, r18
    2f14:	73 9f       	mul	r23, r19
    2f16:	b0 0d       	add	r27, r0
    2f18:	a1 1d       	adc	r26, r1
    2f1a:	62 1f       	adc	r22, r18
    2f1c:	83 9f       	mul	r24, r19
    2f1e:	a0 0d       	add	r26, r0
    2f20:	61 1d       	adc	r22, r1
    2f22:	22 1f       	adc	r18, r18
    2f24:	74 9f       	mul	r23, r20
    2f26:	33 27       	eor	r19, r19
    2f28:	a0 0d       	add	r26, r0
    2f2a:	61 1d       	adc	r22, r1
    2f2c:	23 1f       	adc	r18, r19
    2f2e:	84 9f       	mul	r24, r20
    2f30:	60 0d       	add	r22, r0
    2f32:	21 1d       	adc	r18, r1
    2f34:	82 2f       	mov	r24, r18
    2f36:	76 2f       	mov	r23, r22
    2f38:	6a 2f       	mov	r22, r26
    2f3a:	11 24       	eor	r1, r1
    2f3c:	9f 57       	subi	r25, 0x7F	; 127
    2f3e:	50 40       	sbci	r21, 0x00	; 0
    2f40:	9a f0       	brmi	.+38     	; 0x2f68 <__mulsf3_pse+0x88>
    2f42:	f1 f0       	breq	.+60     	; 0x2f80 <__mulsf3_pse+0xa0>
    2f44:	88 23       	and	r24, r24
    2f46:	4a f0       	brmi	.+18     	; 0x2f5a <__mulsf3_pse+0x7a>
    2f48:	ee 0f       	add	r30, r30
    2f4a:	ff 1f       	adc	r31, r31
    2f4c:	bb 1f       	adc	r27, r27
    2f4e:	66 1f       	adc	r22, r22
    2f50:	77 1f       	adc	r23, r23
    2f52:	88 1f       	adc	r24, r24
    2f54:	91 50       	subi	r25, 0x01	; 1
    2f56:	50 40       	sbci	r21, 0x00	; 0
    2f58:	a9 f7       	brne	.-22     	; 0x2f44 <__mulsf3_pse+0x64>
    2f5a:	9e 3f       	cpi	r25, 0xFE	; 254
    2f5c:	51 05       	cpc	r21, r1
    2f5e:	80 f0       	brcs	.+32     	; 0x2f80 <__mulsf3_pse+0xa0>
    2f60:	0c 94 a4 16 	jmp	0x2d48	; 0x2d48 <__fp_inf>
    2f64:	0c 94 ff 16 	jmp	0x2dfe	; 0x2dfe <__fp_szero>
    2f68:	5f 3f       	cpi	r21, 0xFF	; 255
    2f6a:	e4 f3       	brlt	.-8      	; 0x2f64 <__mulsf3_pse+0x84>
    2f6c:	98 3e       	cpi	r25, 0xE8	; 232
    2f6e:	d4 f3       	brlt	.-12     	; 0x2f64 <__mulsf3_pse+0x84>
    2f70:	86 95       	lsr	r24
    2f72:	77 95       	ror	r23
    2f74:	67 95       	ror	r22
    2f76:	b7 95       	ror	r27
    2f78:	f7 95       	ror	r31
    2f7a:	e7 95       	ror	r30
    2f7c:	9f 5f       	subi	r25, 0xFF	; 255
    2f7e:	c1 f7       	brne	.-16     	; 0x2f70 <__mulsf3_pse+0x90>
    2f80:	fe 2b       	or	r31, r30
    2f82:	88 0f       	add	r24, r24
    2f84:	91 1d       	adc	r25, r1
    2f86:	96 95       	lsr	r25
    2f88:	87 95       	ror	r24
    2f8a:	97 f9       	bld	r25, 7
    2f8c:	08 95       	ret

00002f8e <__fp_mpack>:
    2f8e:	9f 3f       	cpi	r25, 0xFF	; 255
    2f90:	31 f0       	breq	.+12     	; 0x2f9e <__fp_mpack_finite+0xc>

00002f92 <__fp_mpack_finite>:
    2f92:	91 50       	subi	r25, 0x01	; 1
    2f94:	20 f4       	brcc	.+8      	; 0x2f9e <__fp_mpack_finite+0xc>
    2f96:	87 95       	ror	r24
    2f98:	77 95       	ror	r23
    2f9a:	67 95       	ror	r22
    2f9c:	b7 95       	ror	r27
    2f9e:	88 0f       	add	r24, r24
    2fa0:	91 1d       	adc	r25, r1
    2fa2:	96 95       	lsr	r25
    2fa4:	87 95       	ror	r24
    2fa6:	97 f9       	bld	r25, 7
    2fa8:	08 95       	ret

00002faa <__fp_powser>:
    2faa:	df 93       	push	r29
    2fac:	cf 93       	push	r28
    2fae:	1f 93       	push	r17
    2fb0:	0f 93       	push	r16
    2fb2:	ff 92       	push	r15
    2fb4:	ef 92       	push	r14
    2fb6:	df 92       	push	r13
    2fb8:	7b 01       	movw	r14, r22
    2fba:	8c 01       	movw	r16, r24
    2fbc:	68 94       	set
    2fbe:	06 c0       	rjmp	.+12     	; 0x2fcc <__fp_powser+0x22>
    2fc0:	da 2e       	mov	r13, r26
    2fc2:	ef 01       	movw	r28, r30
    2fc4:	0e 94 6d 17 	call	0x2eda	; 0x2eda <__mulsf3x>
    2fc8:	fe 01       	movw	r30, r28
    2fca:	e8 94       	clt
    2fcc:	a5 91       	lpm	r26, Z+
    2fce:	25 91       	lpm	r18, Z+
    2fd0:	35 91       	lpm	r19, Z+
    2fd2:	45 91       	lpm	r20, Z+
    2fd4:	55 91       	lpm	r21, Z+
    2fd6:	a6 f3       	brts	.-24     	; 0x2fc0 <__fp_powser+0x16>
    2fd8:	ef 01       	movw	r28, r30
    2fda:	0e 94 05 15 	call	0x2a0a	; 0x2a0a <__addsf3x>
    2fde:	fe 01       	movw	r30, r28
    2fe0:	97 01       	movw	r18, r14
    2fe2:	a8 01       	movw	r20, r16
    2fe4:	da 94       	dec	r13
    2fe6:	69 f7       	brne	.-38     	; 0x2fc2 <__fp_powser+0x18>
    2fe8:	df 90       	pop	r13
    2fea:	ef 90       	pop	r14
    2fec:	ff 90       	pop	r15
    2fee:	0f 91       	pop	r16
    2ff0:	1f 91       	pop	r17
    2ff2:	cf 91       	pop	r28
    2ff4:	df 91       	pop	r29
    2ff6:	08 95       	ret

00002ff8 <__udivmodhi4>:
    2ff8:	aa 1b       	sub	r26, r26
    2ffa:	bb 1b       	sub	r27, r27
    2ffc:	51 e1       	ldi	r21, 0x11	; 17
    2ffe:	07 c0       	rjmp	.+14     	; 0x300e <__udivmodhi4_ep>

00003000 <__udivmodhi4_loop>:
    3000:	aa 1f       	adc	r26, r26
    3002:	bb 1f       	adc	r27, r27
    3004:	a6 17       	cp	r26, r22
    3006:	b7 07       	cpc	r27, r23
    3008:	10 f0       	brcs	.+4      	; 0x300e <__udivmodhi4_ep>
    300a:	a6 1b       	sub	r26, r22
    300c:	b7 0b       	sbc	r27, r23

0000300e <__udivmodhi4_ep>:
    300e:	88 1f       	adc	r24, r24
    3010:	99 1f       	adc	r25, r25
    3012:	5a 95       	dec	r21
    3014:	a9 f7       	brne	.-22     	; 0x3000 <__udivmodhi4_loop>
    3016:	80 95       	com	r24
    3018:	90 95       	com	r25
    301a:	bc 01       	movw	r22, r24
    301c:	cd 01       	movw	r24, r26
    301e:	08 95       	ret

00003020 <__divmodhi4>:
    3020:	97 fb       	bst	r25, 7
    3022:	07 2e       	mov	r0, r23
    3024:	16 f4       	brtc	.+4      	; 0x302a <__divmodhi4+0xa>
    3026:	00 94       	com	r0
    3028:	07 d0       	rcall	.+14     	; 0x3038 <__divmodhi4_neg1>
    302a:	77 fd       	sbrc	r23, 7
    302c:	09 d0       	rcall	.+18     	; 0x3040 <__divmodhi4_neg2>
    302e:	0e 94 fc 17 	call	0x2ff8	; 0x2ff8 <__udivmodhi4>
    3032:	07 fc       	sbrc	r0, 7
    3034:	05 d0       	rcall	.+10     	; 0x3040 <__divmodhi4_neg2>
    3036:	3e f4       	brtc	.+14     	; 0x3046 <__divmodhi4_exit>

00003038 <__divmodhi4_neg1>:
    3038:	90 95       	com	r25
    303a:	81 95       	neg	r24
    303c:	9f 4f       	sbci	r25, 0xFF	; 255
    303e:	08 95       	ret

00003040 <__divmodhi4_neg2>:
    3040:	70 95       	com	r23
    3042:	61 95       	neg	r22
    3044:	7f 4f       	sbci	r23, 0xFF	; 255

00003046 <__divmodhi4_exit>:
    3046:	08 95       	ret

00003048 <__udivmodsi4>:
    3048:	a1 e2       	ldi	r26, 0x21	; 33
    304a:	1a 2e       	mov	r1, r26
    304c:	aa 1b       	sub	r26, r26
    304e:	bb 1b       	sub	r27, r27
    3050:	fd 01       	movw	r30, r26
    3052:	0d c0       	rjmp	.+26     	; 0x306e <__udivmodsi4_ep>

00003054 <__udivmodsi4_loop>:
    3054:	aa 1f       	adc	r26, r26
    3056:	bb 1f       	adc	r27, r27
    3058:	ee 1f       	adc	r30, r30
    305a:	ff 1f       	adc	r31, r31
    305c:	a2 17       	cp	r26, r18
    305e:	b3 07       	cpc	r27, r19
    3060:	e4 07       	cpc	r30, r20
    3062:	f5 07       	cpc	r31, r21
    3064:	20 f0       	brcs	.+8      	; 0x306e <__udivmodsi4_ep>
    3066:	a2 1b       	sub	r26, r18
    3068:	b3 0b       	sbc	r27, r19
    306a:	e4 0b       	sbc	r30, r20
    306c:	f5 0b       	sbc	r31, r21

0000306e <__udivmodsi4_ep>:
    306e:	66 1f       	adc	r22, r22
    3070:	77 1f       	adc	r23, r23
    3072:	88 1f       	adc	r24, r24
    3074:	99 1f       	adc	r25, r25
    3076:	1a 94       	dec	r1
    3078:	69 f7       	brne	.-38     	; 0x3054 <__udivmodsi4_loop>
    307a:	60 95       	com	r22
    307c:	70 95       	com	r23
    307e:	80 95       	com	r24
    3080:	90 95       	com	r25
    3082:	9b 01       	movw	r18, r22
    3084:	ac 01       	movw	r20, r24
    3086:	bd 01       	movw	r22, r26
    3088:	cf 01       	movw	r24, r30
    308a:	08 95       	ret

0000308c <__umulhisi3>:
    308c:	a2 9f       	mul	r26, r18
    308e:	b0 01       	movw	r22, r0
    3090:	b3 9f       	mul	r27, r19
    3092:	c0 01       	movw	r24, r0
    3094:	a3 9f       	mul	r26, r19
    3096:	70 0d       	add	r23, r0
    3098:	81 1d       	adc	r24, r1
    309a:	11 24       	eor	r1, r1
    309c:	91 1d       	adc	r25, r1
    309e:	b2 9f       	mul	r27, r18
    30a0:	70 0d       	add	r23, r0
    30a2:	81 1d       	adc	r24, r1
    30a4:	11 24       	eor	r1, r1
    30a6:	91 1d       	adc	r25, r1
    30a8:	08 95       	ret

000030aa <__adddi3>:
    30aa:	2a 0d       	add	r18, r10
    30ac:	3b 1d       	adc	r19, r11
    30ae:	4c 1d       	adc	r20, r12
    30b0:	5d 1d       	adc	r21, r13
    30b2:	6e 1d       	adc	r22, r14
    30b4:	7f 1d       	adc	r23, r15
    30b6:	80 1f       	adc	r24, r16
    30b8:	91 1f       	adc	r25, r17
    30ba:	08 95       	ret

000030bc <__adddi3_s8>:
    30bc:	00 24       	eor	r0, r0
    30be:	a7 fd       	sbrc	r26, 7
    30c0:	00 94       	com	r0
    30c2:	2a 0f       	add	r18, r26
    30c4:	30 1d       	adc	r19, r0
    30c6:	40 1d       	adc	r20, r0
    30c8:	50 1d       	adc	r21, r0
    30ca:	60 1d       	adc	r22, r0
    30cc:	70 1d       	adc	r23, r0
    30ce:	80 1d       	adc	r24, r0
    30d0:	90 1d       	adc	r25, r0
    30d2:	08 95       	ret

000030d4 <__subdi3>:
    30d4:	2a 19       	sub	r18, r10
    30d6:	3b 09       	sbc	r19, r11
    30d8:	4c 09       	sbc	r20, r12
    30da:	5d 09       	sbc	r21, r13
    30dc:	6e 09       	sbc	r22, r14
    30de:	7f 09       	sbc	r23, r15
    30e0:	80 0b       	sbc	r24, r16
    30e2:	91 0b       	sbc	r25, r17
    30e4:	08 95       	ret

000030e6 <__cmpdi2>:
    30e6:	2a 15       	cp	r18, r10
    30e8:	3b 05       	cpc	r19, r11
    30ea:	4c 05       	cpc	r20, r12
    30ec:	5d 05       	cpc	r21, r13
    30ee:	6e 05       	cpc	r22, r14
    30f0:	7f 05       	cpc	r23, r15
    30f2:	80 07       	cpc	r24, r16
    30f4:	91 07       	cpc	r25, r17
    30f6:	08 95       	ret

000030f8 <eeprom_read_block>:
    30f8:	dc 01       	movw	r26, r24
    30fa:	cb 01       	movw	r24, r22

000030fc <eeprom_read_blraw>:
    30fc:	fc 01       	movw	r30, r24
    30fe:	f9 99       	sbic	0x1f, 1	; 31
    3100:	fe cf       	rjmp	.-4      	; 0x30fe <eeprom_read_blraw+0x2>
    3102:	06 c0       	rjmp	.+12     	; 0x3110 <eeprom_read_blraw+0x14>
    3104:	f2 bd       	out	0x22, r31	; 34
    3106:	e1 bd       	out	0x21, r30	; 33
    3108:	f8 9a       	sbi	0x1f, 0	; 31
    310a:	31 96       	adiw	r30, 0x01	; 1
    310c:	00 b4       	in	r0, 0x20	; 32
    310e:	0d 92       	st	X+, r0
    3110:	41 50       	subi	r20, 0x01	; 1
    3112:	50 40       	sbci	r21, 0x00	; 0
    3114:	b8 f7       	brcc	.-18     	; 0x3104 <eeprom_read_blraw+0x8>
    3116:	08 95       	ret

00003118 <eeprom_update_block>:
    3118:	dc 01       	movw	r26, r24
    311a:	a4 0f       	add	r26, r20
    311c:	b5 1f       	adc	r27, r21
    311e:	41 50       	subi	r20, 0x01	; 1
    3120:	50 40       	sbci	r21, 0x00	; 0
    3122:	48 f0       	brcs	.+18     	; 0x3136 <eeprom_update_block+0x1e>
    3124:	cb 01       	movw	r24, r22
    3126:	84 0f       	add	r24, r20
    3128:	95 1f       	adc	r25, r21
    312a:	2e 91       	ld	r18, -X
    312c:	0e 94 9d 18 	call	0x313a	; 0x313a <eeprom_update_r18>
    3130:	41 50       	subi	r20, 0x01	; 1
    3132:	50 40       	sbci	r21, 0x00	; 0
    3134:	d0 f7       	brcc	.-12     	; 0x312a <eeprom_update_block+0x12>
    3136:	08 95       	ret

00003138 <eeprom_update_byte>:
    3138:	26 2f       	mov	r18, r22

0000313a <eeprom_update_r18>:
    313a:	f9 99       	sbic	0x1f, 1	; 31
    313c:	fe cf       	rjmp	.-4      	; 0x313a <eeprom_update_r18>
    313e:	92 bd       	out	0x22, r25	; 34
    3140:	81 bd       	out	0x21, r24	; 33
    3142:	f8 9a       	sbi	0x1f, 0	; 31
    3144:	01 97       	sbiw	r24, 0x01	; 1
    3146:	00 b4       	in	r0, 0x20	; 32
    3148:	02 16       	cp	r0, r18
    314a:	39 f0       	breq	.+14     	; 0x315a <eeprom_update_r18+0x20>
    314c:	1f ba       	out	0x1f, r1	; 31
    314e:	20 bd       	out	0x20, r18	; 32
    3150:	0f b6       	in	r0, 0x3f	; 63
    3152:	f8 94       	cli
    3154:	fa 9a       	sbi	0x1f, 2	; 31
    3156:	f9 9a       	sbi	0x1f, 1	; 31
    3158:	0f be       	out	0x3f, r0	; 63
    315a:	08 95       	ret

0000315c <_exit>:
    315c:	f8 94       	cli

0000315e <__stop_program>:
    315e:	ff cf       	rjmp	.-2      	; 0x315e <__stop_program>
